ARM Linker, 4.1 [Build 894] [Standard]

==============================================================================

Section Cross References

    gl_ui.o(i.gl_bmp) refers to memseta.o(.text) for __aeabi_memclr4
    gl_ui.o(i.gl_bmp) refers to memcpya.o(.text) for __aeabi_memcpy
    gl_ui.o(i.gl_bmp) refers to glcd.o(i.LCD_SetPoint) for LCD_SetPoint
    gl_ui.o(i.gl_clear) refers to gl_ui.o(i.LCD_SetArea) for LCD_SetArea
    gl_ui.o(i.gl_fill_rect) refers to gl_ui.o(i.gl_horizon_line) for gl_horizon_line
    gl_ui.o(i.gl_fill_rect) refers to gl_ui.o(i.gl_vertical_line) for gl_vertical_line
    gl_ui.o(i.gl_fill_rect) refers to gl_ui.o(i.gl_setarea) for gl_setarea
    gl_ui.o(i.gl_fill_rect) refers to gl_ui.o(.data) for .data
    gl_ui.o(i.gl_horizon_line) refers to gl_ui.o(i.gl_setarea) for gl_setarea
    gl_ui.o(i.gl_horizon_line) refers to gl_ui.o(.data) for .data
    gl_ui.o(i.gl_picture) refers to gl_ui.o(i.gl_setarea) for gl_setarea
    gl_ui.o(i.gl_picture) refers to gl_ui.o(.data) for .data
    gl_ui.o(i.gl_rect) refers to gl_ui.o(i.gl_horizon_line) for gl_horizon_line
    gl_ui.o(i.gl_rect) refers to gl_ui.o(i.gl_vertical_line) for gl_vertical_line
    gl_ui.o(i.gl_setarea) refers to gl_ui.o(i.LCD_SetArea) for LCD_SetArea
    gl_ui.o(i.gl_text) refers to gl_ui.o(i.gl_ui_setpencolor) for gl_ui_setpencolor
    gl_ui.o(i.gl_text) refers to gl_ui.o(i.gl_picture) for gl_picture
    gl_ui.o(i.gl_text) refers to gl_ui.o(.data) for .data
    gl_ui.o(i.gl_text) refers to gl_ui.o(.bss) for .bss
    gl_ui.o(i.gl_ui_hook) refers to gl_ui.o(.data) for .data
    gl_ui.o(i.gl_ui_setbkcolor) refers to gl_ui.o(.data) for .data
    gl_ui.o(i.gl_ui_setbkmode) refers to gl_ui.o(.data) for .data
    gl_ui.o(i.gl_ui_setbrushcolor) refers to gl_ui.o(.data) for .data
    gl_ui.o(i.gl_ui_setfontcolor) refers to gl_ui.o(.data) for .data
    gl_ui.o(i.gl_ui_setlib) refers to gl_ui.o(.bss) for .bss
    gl_ui.o(i.gl_ui_setpencolor) refers to gl_ui.o(.data) for .data
    gl_ui.o(i.gl_vertical_line) refers to gl_ui.o(i.gl_setarea) for gl_setarea
    gl_ui.o(i.gl_vertical_line) refers to gl_ui.o(.data) for .data
    zimo_st9.o(.data) refers to zimo_st9.o(.constdata) for zm_sign_space_st9_8_12
    zimo_st9.o(.data) refers to zimo_st9.o(.constdata) for zm_sign_st9_8_12
    zimo_st9.o(.data) refers to zimo_st9.o(.constdata) for zm_0_9_st9_8_12
    zimo_st9.o(.data) refers to zimo_st9.o(.constdata) for zm_sign_colon_st9_8_12
    zimo_st9.o(.data) refers to zimo_st9.o(.constdata) for zm_A_Z_st9_8_12
    zimo_st9.o(.data) refers to zimo_st9.o(.constdata) for zm_a_z_st9_8_12
    flash.o(i.CoverFlash) refers to flash.o(i.ReadFlash) for ReadFlash
    flash.o(i.CoverFlash) refers to flash.o(i.WriteFlash) for WriteFlash
    flash.o(i.CoverFlash) refers to flash.o(.bss) for .bss
    flash.o(i.ReadFlash) refers to stm32f10x_flash.o(i.FLASH_Unlock) for FLASH_Unlock
    flash.o(i.ReadFlash) refers to stm32f10x_flash.o(i.FLASH_ClearFlag) for FLASH_ClearFlag
    flash.o(i.ReadFlash) refers to stm32f10x_flash.o(i.FLASH_Lock) for FLASH_Lock
    flash.o(i.WriteFlash) refers to stm32f10x_flash.o(i.FLASH_Unlock) for FLASH_Unlock
    flash.o(i.WriteFlash) refers to stm32f10x_flash.o(i.FLASH_ClearFlag) for FLASH_ClearFlag
    flash.o(i.WriteFlash) refers to stm32f10x_flash.o(i.FLASH_ErasePage) for FLASH_ErasePage
    flash.o(i.WriteFlash) refers to stm32f10x_flash.o(i.FLASH_ProgramWord) for FLASH_ProgramWord
    flash.o(i.WriteFlash) refers to stm32f10x_flash.o(i.FLASH_Lock) for FLASH_Lock
    key.o(i.Delay_ms) refers to key.o(.data) for .data
    key.o(i.KeyDown) refers to stm32f10x_gpio.o(i.GPIO_ReadInputDataBit) for GPIO_ReadInputDataBit
    key.o(i.KeyDown) refers to key.o(i.Delay_ms) for Delay_ms
    key.o(i.KeyDown) refers to key.o(.data) for .data
    key.o(i.KeyDown_Ex) refers to key.o(i.Delay_ms) for Delay_ms
    key.o(i.KeyDown_Ex) refers to stm32f10x_gpio.o(i.GPIO_ReadInputDataBit) for GPIO_ReadInputDataBit
    key.o(i.KeyPress) refers to stm32f10x_gpio.o(i.GPIO_ReadInputDataBit) for GPIO_ReadInputDataBit
    key.o(i.KeyPress) refers to key.o(i.Delay_ms) for Delay_ms
    key.o(i.KeyPress) refers to key.o(.data) for .data
    main.o(i.ADC_Configuration) refers to stm32f10x_rcc.o(i.RCC_AHBPeriphClockCmd) for RCC_AHBPeriphClockCmd
    main.o(i.ADC_Configuration) refers to stm32f10x_rcc.o(i.RCC_APB2PeriphClockCmd) for RCC_APB2PeriphClockCmd
    main.o(i.ADC_Configuration) refers to stm32f10x_dma.o(i.DMA_DeInit) for DMA_DeInit
    main.o(i.ADC_Configuration) refers to stm32f10x_dma.o(i.DMA_Init) for DMA_Init
    main.o(i.ADC_Configuration) refers to stm32f10x_dma.o(i.DMA_Cmd) for DMA_Cmd
    main.o(i.ADC_Configuration) refers to stm32f10x_adc.o(i.ADC_Init) for ADC_Init
    main.o(i.ADC_Configuration) refers to stm32f10x_adc.o(i.ADC_RegularChannelConfig) for ADC_RegularChannelConfig
    main.o(i.ADC_Configuration) refers to stm32f10x_adc.o(i.ADC_DMACmd) for ADC_DMACmd
    main.o(i.ADC_Configuration) refers to stm32f10x_adc.o(i.ADC_Cmd) for ADC_Cmd
    main.o(i.ADC_Configuration) refers to stm32f10x_adc.o(i.ADC_ResetCalibration) for ADC_ResetCalibration
    main.o(i.ADC_Configuration) refers to stm32f10x_adc.o(i.ADC_GetResetCalibrationStatus) for ADC_GetResetCalibrationStatus
    main.o(i.ADC_Configuration) refers to stm32f10x_adc.o(i.ADC_StartCalibration) for ADC_StartCalibration
    main.o(i.ADC_Configuration) refers to stm32f10x_adc.o(i.ADC_GetCalibrationStatus) for ADC_GetCalibrationStatus
    main.o(i.ADC_Configuration) refers to stm32f10x_adc.o(i.ADC_SoftwareStartConvCmd) for ADC_SoftwareStartConvCmd
    main.o(i.ADC_Configuration) refers to main.o(.bss) for .bss
    main.o(i.AutoCtrlPower) refers to main.o(i.GetAD) for GetAD
    main.o(i.AutoCtrlPower) refers to printfa.o(i.__0sprintf) for __2sprintf
    main.o(i.AutoCtrlPower) refers to stm32f10x_dac.o(i.DAC_SoftwareTriggerCmd) for DAC_SoftwareTriggerCmd
    main.o(i.AutoCtrlPower) refers to stm32f10x_dac.o(i.DAC_SetChannel1Data) for DAC_SetChannel1Data
    main.o(i.AutoCtrlPower) refers to main.o(.data) for .data
    main.o(i.AutoCtrlPower) refers to main.o(.bss) for .bss
    main.o(i.Check1963) refers to printfa.o(i.__0printf) for __2printf
    main.o(i.Check1963) refers to glcd.o(i.LCD_ReadReg) for LCD_ReadReg
    main.o(i.Check1963) refers to glcd.o(i.LCD_Initializtion) for LCD_Initializtion
    main.o(i.Check1963) refers to key.o(i.Delay_ms) for Delay_ms
    main.o(i.Check1963) refers to main.o(i.ProGet1963State) for ProGet1963State
    main.o(i.Check1963) refers to glcd.o(i.LCD_SetBacklight) for LCD_SetBacklight
    main.o(i.Check1963) refers to main.o(.data) for .data
    main.o(i.CheckLCD) refers to printfa.o(i.__0printf) for __2printf
    main.o(i.CheckLCD) refers to glcd.o(i.LCD_SetPoint) for LCD_SetPoint
    main.o(i.CheckLCD) refers to key.o(i.Delay_ms) for Delay_ms
    main.o(i.CheckLCD) refers to glcd.o(i.LCD_GetPoint) for LCD_GetPoint
    main.o(i.Ctrl_Operating_Mode) refers to stm32f10x_tim.o(i.TIM_ITConfig) for TIM_ITConfig
    main.o(i.Ctrl_Operating_Mode) refers to stm32f10x_tim.o(i.TIM_Cmd) for TIM_Cmd
    main.o(i.Ctrl_Operating_Mode) refers to stm32f10x_gpio.o(i.GPIO_SetBits) for GPIO_SetBits
    main.o(i.Ctrl_Operating_Mode) refers to stm32f10x_gpio.o(i.GPIO_ResetBits) for GPIO_ResetBits
    main.o(i.Ctrl_Operating_Mode) refers to main.o(i.TIM5_Init) for TIM5_Init
    main.o(i.Ctrl_Operating_Mode) refers to main.o(i.TIM3_Init) for TIM3_Init
    main.o(i.Ctrl_Operating_Mode) refers to main.o(i.TIM4_Init) for TIM4_Init
    main.o(i.Ctrl_Operating_Mode) refers to main.o(.data) for .data
    main.o(i.Ctrl_Power) refers to dflti.o(.text) for __aeabi_i2d
    main.o(i.Ctrl_Power) refers to ddiv.o(.text) for __aeabi_ddiv
    main.o(i.Ctrl_Power) refers to d2f.o(.text) for __aeabi_d2f
    main.o(i.Ctrl_Power) refers to fadd.o(.text) for __aeabi_fadd
    main.o(i.Ctrl_Power) refers to f2d.o(.text) for __aeabi_f2d
    main.o(i.Ctrl_Power) refers to fdiv.o(.text) for __aeabi_fdiv
    main.o(i.Ctrl_Power) refers to pow.o(i.pow) for pow
    main.o(i.Ctrl_Power) refers to dmul.o(.text) for __aeabi_dmul
    main.o(i.Ctrl_Power) refers to dfixui.o(.text) for __aeabi_d2uiz
    main.o(i.Ctrl_Power) refers to printfa.o(i.__0sprintf) for __2sprintf
    main.o(i.Ctrl_Power) refers to stm32f10x_dac.o(i.DAC_SoftwareTriggerCmd) for DAC_SoftwareTriggerCmd
    main.o(i.Ctrl_Power) refers to stm32f10x_dac.o(i.DAC_SetChannel1Data) for DAC_SetChannel1Data
    main.o(i.Ctrl_Power) refers to ts100_draw.o(i.LCD_Power_Control_Selection_Ex) for LCD_Power_Control_Selection_Ex
    main.o(i.Ctrl_Power) refers to main.o(.data) for .data
    main.o(i.Ctrl_Power) refers to main.o(.bss) for .bss
    main.o(i.Ctrl_RedLight) refers to stm32f10x_gpio.o(i.GPIO_ResetBits) for GPIO_ResetBits
    main.o(i.Ctrl_RedLight) refers to stm32f10x_gpio.o(i.GPIO_SetBits) for GPIO_SetBits
    main.o(i.Ctrl_Timing_Device) refers to main.o(.data) for .data
    main.o(i.Ctrl_Wavelength) refers to stm32f10x_tim.o(i.TIM_Cmd) for TIM_Cmd
    main.o(i.Ctrl_Wavelength) refers to stm32f10x_gpio.o(i.GPIO_ResetBits) for GPIO_ResetBits
    main.o(i.DAC_Configuration) refers to stm32f10x_rcc.o(i.RCC_APB2PeriphClockCmd) for RCC_APB2PeriphClockCmd
    main.o(i.DAC_Configuration) refers to stm32f10x_rcc.o(i.RCC_APB1PeriphClockCmd) for RCC_APB1PeriphClockCmd
    main.o(i.DAC_Configuration) refers to stm32f10x_dac.o(i.DAC_Init) for DAC_Init
    main.o(i.DAC_Configuration) refers to stm32f10x_dac.o(i.DAC_Cmd) for DAC_Cmd
    main.o(i.DbmToScale) refers to fdiv.o(.text) for __aeabi_fdiv
    main.o(i.DbmToScale) refers to ffixi.o(.text) for __aeabi_f2iz
    main.o(i.DbmToScale) refers to fflti.o(.text) for __aeabi_i2f
    main.o(i.DbmToScale) refers to fadd.o(.text) for __aeabi_frsub
    main.o(i.DbmToScale) refers to fmul.o(.text) for __aeabi_fmul
    main.o(i.DbmToScale) refers to main.o(.data) for .data
    main.o(i.DebugLookAD) refers to gl_key.o(i.gl_key_init) for gl_key_init
    main.o(i.DebugLookAD) refers to main.o(i.Ctrl_Power) for Ctrl_Power
    main.o(i.DebugLookAD) refers to stm32f10x_rcc.o(i.RCC_APB2PeriphClockCmd) for RCC_APB2PeriphClockCmd
    main.o(i.DebugLookAD) refers to stm32f10x_gpio.o(i.GPIO_Init) for GPIO_Init
    main.o(i.DebugLookAD) refers to main.o(i.TurnOffPower) for TurnOffPower
    main.o(i.DebugLookAD) refers to key.o(i.KeyPress) for KeyPress
    main.o(i.DebugLookAD) refers to stm32f10x_dac.o(i.DAC_SetChannel1Data) for DAC_SetChannel1Data
    main.o(i.DebugLookAD) refers to stm32f10x_dac.o(i.DAC_SoftwareTriggerCmd) for DAC_SoftwareTriggerCmd
    main.o(i.DebugLookAD) refers to printfa.o(i.__0sprintf) for __2sprintf
    main.o(i.DebugLookAD) refers to gl_ui.o(i.gl_text) for gl_text
    main.o(i.DebugLookAD) refers to main.o(.bss) for .bss
    main.o(i.DebugLookAD) refers to main.o(.data) for .data
    main.o(i.DrawFocus) refers to gl_ui.o(i.gl_ui_setbrushcolor) for gl_ui_setbrushcolor
    main.o(i.DrawFocus) refers to gl_ui.o(i.gl_ui_setpencolor) for gl_ui_setpencolor
    main.o(i.DrawFocus) refers to gl_ui.o(i.gl_fill_rect) for gl_fill_rect
    main.o(i.External_Interrupt_InterruptConfig) refers to misc.o(i.NVIC_SetVectorTable) for NVIC_SetVectorTable
    main.o(i.External_Interrupt_InterruptConfig) refers to misc.o(i.NVIC_PriorityGroupConfig) for NVIC_PriorityGroupConfig
    main.o(i.External_Interrupt_InterruptConfig) refers to misc.o(i.NVIC_Init) for NVIC_Init
    main.o(i.FLASH_Configuration) refers to flash.o(i.ReadFlash) for ReadFlash
    main.o(i.FLASH_Configuration) refers to printfa.o(i.__0printf) for __2printf
    main.o(i.FLASH_Configuration) refers to f2d.o(.text) for __aeabi_f2d
    main.o(i.FLASH_Configuration) refers to main.o(.bss) for .bss
    main.o(i.Function_IO_config) refers to stm32f10x_rcc.o(i.RCC_APB2PeriphClockCmd) for RCC_APB2PeriphClockCmd
    main.o(i.Function_IO_config) refers to stm32f10x_gpio.o(i.GPIO_Init) for GPIO_Init
    main.o(i.Function_IO_config) refers to stm32f10x_gpio.o(i.GPIO_SetBits) for GPIO_SetBits
    main.o(i.Function_IO_config) refers to stm32f10x_gpio.o(i.GPIO_ResetBits) for GPIO_ResetBits
    main.o(i.Function_IO_config) refers to glcd.o(i.LCD_Configuration) for LCD_Configuration
    main.o(i.GetAD) refers to ffltui.o(.text) for __aeabi_ui2f
    main.o(i.GetAD) refers to fdiv.o(.text) for __aeabi_fdiv
    main.o(i.GetAD) refers to ffixui.o(.text) for __aeabi_f2uiz
    main.o(i.GetAD) refers to main.o(.bss) for .bss
    main.o(i.IsHacker) refers to ts100_draw.o(i.UI_DebugMain) for UI_DebugMain
    main.o(i.IsHacker) refers to main.o(.data) for .data
    main.o(i.LCD_DrawMain) refers to glcd.o(i.LCD_Clear) for LCD_Clear
    main.o(i.LCD_DrawMain) refers to ts100_draw.o(i.LCD_FLSAH_DrawPicture) for LCD_FLSAH_DrawPicture
    main.o(i.LCD_DrawMain) refers to key.o(i.Delay_ms) for Delay_ms
    main.o(i.LCD_DrawMain) refers to gl_ui.o(i.gl_clear) for gl_clear
    main.o(i.LCD_DrawMain) refers to main.o(i.Ctrl_Power) for Ctrl_Power
    main.o(i.LCD_DrawMain) refers to ts100_draw.o(i.LCD_Wavelength_Selection_Ex) for LCD_Wavelength_Selection_Ex
    main.o(i.LCD_DrawMain) refers to ts100_draw.o(i.LCD_OperatMode_Selection) for LCD_OperatMode_Selection
    main.o(i.LCD_DrawMain) refers to main.o(i.Ctrl_Timing_Device) for Ctrl_Timing_Device
    main.o(i.LCD_DrawMain) refers to ts100_draw.o(i.LCD_Timing_Display) for LCD_Timing_Display
    main.o(i.LCD_DrawMain) refers to ts100_draw.o(i.LCD_RedLight_Show) for LCD_RedLight_Show
    main.o(i.LCD_DrawMain) refers to main.o(i.ProChargerMonitor) for ProChargerMonitor
    main.o(i.LCD_DrawMain) refers to touchpanel.o(i.TouchPanel_Calibrate) for TouchPanel_Calibrate
    main.o(i.LCD_DrawMain) refers to ts100_draw.o(i.LCD_Batter_Show) for LCD_Batter_Show
    main.o(i.LCD_DrawMain) refers to picturedata.o(.constdata) for gImage_logo
    main.o(i.LCD_DrawMain) refers to main.o(.bss) for .bss
    main.o(i.LCD_DrawMain) refers to main.o(.data) for .data
    main.o(i.NVIC_Configuration) refers to misc.o(i.NVIC_SetVectorTable) for NVIC_SetVectorTable
    main.o(i.NVIC_Configuration) refers to misc.o(i.NVIC_PriorityGroupConfig) for NVIC_PriorityGroupConfig
    main.o(i.NVIC_Configuration) refers to misc.o(i.NVIC_Init) for NVIC_Init
    main.o(i.ProChargerMonitor) refers to main.o(i.GetAD) for GetAD
    main.o(i.ProChargerMonitor) refers to dfltui.o(.text) for __aeabi_ui2d
    main.o(i.ProChargerMonitor) refers to dmul.o(.text) for __aeabi_dmul
    main.o(i.ProChargerMonitor) refers to dadd.o(.text) for __aeabi_dadd
    main.o(i.ProChargerMonitor) refers to d2f.o(.text) for __aeabi_d2f
    main.o(i.ProChargerMonitor) refers to fflti.o(.text) for __aeabi_i2f
    main.o(i.ProChargerMonitor) refers to f2d.o(.text) for __aeabi_f2d
    main.o(i.ProChargerMonitor) refers to printfa.o(i.__0sprintf) for __2sprintf
    main.o(i.ProChargerMonitor) refers to stm32f10x_gpio.o(i.GPIO_ReadInputDataBit) for GPIO_ReadInputDataBit
    main.o(i.ProChargerMonitor) refers to gl_ui.o(i.gl_setpoint) for gl_setpoint
    main.o(i.ProChargerMonitor) refers to key.o(i.Delay_ms) for Delay_ms
    main.o(i.ProChargerMonitor) refers to main.o(i.TurnOffPower) for TurnOffPower
    main.o(i.ProChargerMonitor) refers to ts100_draw.o(i.LCD_Batter_Show) for LCD_Batter_Show
    main.o(i.ProChargerMonitor) refers to main.o(.data) for .data
    main.o(i.ProGet1963State) refers to printfa.o(i.__0printf) for __2printf
    main.o(i.ProGet1963State) refers to glcd.o(i.LCD_ReadReg) for LCD_ReadReg
    main.o(i.ProGet1963State) refers to printfa.o(i.__0sprintf) for __2sprintf
    main.o(i.ProGet1963State) refers to main.o(.data) for .data
    main.o(i.ProGet1963State) refers to main.o(.bss) for .bss
    main.o(i.ProTick1963IsLive) refers to glcd.o(i.SSD1963_IsRestart) for SSD1963_IsRestart
    main.o(i.ProTick1963IsLive) refers to printfa.o(i.__0printf) for __2printf
    main.o(i.ProTick1963IsLive) refers to glcd.o(i.LCD_Initializtion) for LCD_Initializtion
    main.o(i.ProTick1963IsLive) refers to glcd.o(i.LCD_SetBacklight) for LCD_SetBacklight
    main.o(i.ProTick1963IsLive) refers to main.o(.data) for .data
    main.o(i.ProTimerShutdown) refers to stm32f10x_gpio.o(i.GPIO_ResetBits) for GPIO_ResetBits
    main.o(i.ProTimerShutdown) refers to key.o(i.Delay_ms) for Delay_ms
    main.o(i.ProTimerShutdown) refers to main.o(.data) for .data
    main.o(i.RedLightIOConfig) refers to stm32f10x_rcc.o(i.RCC_APB2PeriphClockCmd) for RCC_APB2PeriphClockCmd
    main.o(i.RedLightIOConfig) refers to stm32f10x_gpio.o(i.GPIO_Init) for GPIO_Init
    main.o(i.TIM2_Init) refers to stm32f10x_rcc.o(i.RCC_APB1PeriphClockCmd) for RCC_APB1PeriphClockCmd
    main.o(i.TIM2_Init) refers to stm32f10x_tim.o(i.TIM_TimeBaseInit) for TIM_TimeBaseInit
    main.o(i.TIM2_Init) refers to stm32f10x_tim.o(i.TIM_ClearITPendingBit) for TIM_ClearITPendingBit
    main.o(i.TIM2_Init) refers to stm32f10x_tim.o(i.TIM_ITConfig) for TIM_ITConfig
    main.o(i.TIM2_Init) refers to stm32f10x_tim.o(i.TIM_Cmd) for TIM_Cmd
    main.o(i.TIM3_Init) refers to stm32f10x_rcc.o(i.RCC_APB1PeriphClockCmd) for RCC_APB1PeriphClockCmd
    main.o(i.TIM3_Init) refers to stm32f10x_tim.o(i.TIM_TimeBaseInit) for TIM_TimeBaseInit
    main.o(i.TIM3_Init) refers to stm32f10x_tim.o(i.TIM_ClearITPendingBit) for TIM_ClearITPendingBit
    main.o(i.TIM3_Init) refers to stm32f10x_tim.o(i.TIM_ITConfig) for TIM_ITConfig
    main.o(i.TIM3_Init) refers to stm32f10x_tim.o(i.TIM_Cmd) for TIM_Cmd
    main.o(i.TIM4_Init) refers to stm32f10x_rcc.o(i.RCC_APB1PeriphClockCmd) for RCC_APB1PeriphClockCmd
    main.o(i.TIM4_Init) refers to stm32f10x_tim.o(i.TIM_TimeBaseInit) for TIM_TimeBaseInit
    main.o(i.TIM4_Init) refers to stm32f10x_tim.o(i.TIM_ClearITPendingBit) for TIM_ClearITPendingBit
    main.o(i.TIM4_Init) refers to stm32f10x_tim.o(i.TIM_ITConfig) for TIM_ITConfig
    main.o(i.TIM4_Init) refers to stm32f10x_tim.o(i.TIM_Cmd) for TIM_Cmd
    main.o(i.TIM5_Init) refers to stm32f10x_rcc.o(i.RCC_APB1PeriphClockCmd) for RCC_APB1PeriphClockCmd
    main.o(i.TIM5_Init) refers to stm32f10x_tim.o(i.TIM_TimeBaseInit) for TIM_TimeBaseInit
    main.o(i.TIM5_Init) refers to stm32f10x_tim.o(i.TIM_ClearITPendingBit) for TIM_ClearITPendingBit
    main.o(i.TIM5_Init) refers to stm32f10x_tim.o(i.TIM_ITConfig) for TIM_ITConfig
    main.o(i.TIM5_Init) refers to stm32f10x_tim.o(i.TIM_Cmd) for TIM_Cmd
    main.o(i.TIM6_Init) refers to stm32f10x_rcc.o(i.RCC_APB1PeriphClockCmd) for RCC_APB1PeriphClockCmd
    main.o(i.TIM6_Init) refers to stm32f10x_tim.o(i.TIM_TimeBaseInit) for TIM_TimeBaseInit
    main.o(i.TIM6_Init) refers to stm32f10x_tim.o(i.TIM_ClearITPendingBit) for TIM_ClearITPendingBit
    main.o(i.TIM6_Init) refers to stm32f10x_tim.o(i.TIM_ITConfig) for TIM_ITConfig
    main.o(i.TIM6_Init) refers to stm32f10x_tim.o(i.TIM_Cmd) for TIM_Cmd
    main.o(i.TurnOffPower) refers to main.o(i.Ctrl_RedLight) for Ctrl_RedLight
    main.o(i.TurnOffPower) refers to glcd.o(i.LCD_Clear) for LCD_Clear
    main.o(i.TurnOffPower) refers to key.o(i.Delay_ms) for Delay_ms
    main.o(i.TurnOffPower) refers to glcd.o(i.LCD_SetBacklight) for LCD_SetBacklight
    main.o(i.TurnOffPower) refers to stm32f10x_gpio.o(i.GPIO_SetBits) for GPIO_SetBits
    main.o(i.TurnOffPower) refers to stm32f10x_gpio.o(i.GPIO_ResetBits) for GPIO_ResetBits
    main.o(i.TurnOffPower) refers to main.o(.data) for .data
    main.o(i.TurnOnPower) refers to stm32f10x_gpio.o(i.GPIO_SetBits) for GPIO_SetBits
    main.o(i.TurnOnPower) refers to key.o(i.Delay_ms) for Delay_ms
    main.o(i.TurnOnPower) refers to stm32f10x_gpio.o(i.GPIO_ReadInputDataBit) for GPIO_ReadInputDataBit
    main.o(i.TurnOnPower) refers to stm32f10x_gpio.o(i.GPIO_ResetBits) for GPIO_ResetBits
    main.o(i.TurnOnPower) refers to main.o(.data) for .data
    main.o(i.UI_ProMode) refers to key.o(i.KeyDown) for KeyDown
    main.o(i.UI_ProMode) refers to main.o(i.Ctrl_Operating_Mode) for Ctrl_Operating_Mode
    main.o(i.UI_ProMode) refers to ts100_draw.o(i.LCD_OperatMode_Selection) for LCD_OperatMode_Selection
    main.o(i.UI_ProMode) refers to main.o(i.Ctrl_Power) for Ctrl_Power
    main.o(i.UI_ProMode) refers to main.o(.data) for .data
    main.o(i.UI_ProMode) refers to main.o(.bss) for .bss
    main.o(i.UI_ProPower) refers to key.o(i.KeyPress) for KeyPress
    main.o(i.UI_ProPower) refers to main.o(i.Ctrl_Power) for Ctrl_Power
    main.o(i.UI_ProPower) refers to main.o(.bss) for .bss
    main.o(i.UI_ProRedLight_ShutdownTimer) refers to key.o(i.KeyDown_Ex) for KeyDown_Ex
    main.o(i.UI_ProRedLight_ShutdownTimer) refers to main.o(i.Ctrl_Timing_Device) for Ctrl_Timing_Device
    main.o(i.UI_ProRedLight_ShutdownTimer) refers to ts100_draw.o(i.LCD_Timing_Display) for LCD_Timing_Display
    main.o(i.UI_ProRedLight_ShutdownTimer) refers to stm32f10x_gpio.o(i.GPIO_ReadInputDataBit) for GPIO_ReadInputDataBit
    main.o(i.UI_ProRedLight_ShutdownTimer) refers to main.o(i.Ctrl_RedLight) for Ctrl_RedLight
    main.o(i.UI_ProRedLight_ShutdownTimer) refers to ts100_draw.o(i.LCD_RedLight_Show) for LCD_RedLight_Show
    main.o(i.UI_ProRedLight_ShutdownTimer) refers to main.o(.data) for .data
    main.o(i.UI_ProRedraw) refers to glcd.o(i.LCD_Clear) for LCD_Clear
    main.o(i.UI_ProRedraw) refers to ts100_draw.o(i.LCD_Timing_Display) for LCD_Timing_Display
    main.o(i.UI_ProRedraw) refers to ts100_draw.o(i.LCD_RedLight_Show) for LCD_RedLight_Show
    main.o(i.UI_ProRedraw) refers to ts100_draw.o(i.LCD_Batter_Show) for LCD_Batter_Show
    main.o(i.UI_ProRedraw) refers to ts100_draw.o(i.LCD_Power_Control_Selection_Ex) for LCD_Power_Control_Selection_Ex
    main.o(i.UI_ProRedraw) refers to ts100_draw.o(i.LCD_Wavelength_Selection_Ex) for LCD_Wavelength_Selection_Ex
    main.o(i.UI_ProRedraw) refers to ts100_draw.o(i.LCD_OperatMode_Selection) for LCD_OperatMode_Selection
    main.o(i.UI_ProRedraw) refers to main.o(.data) for .data
    main.o(i.UI_ProRedraw) refers to main.o(.bss) for .bss
    main.o(i.UI_ProWavelength) refers to key.o(i.KeyDown) for KeyDown
    main.o(i.UI_ProWavelength) refers to main.o(i.Ctrl_Operating_Mode) for Ctrl_Operating_Mode
    main.o(i.UI_ProWavelength) refers to main.o(i.Ctrl_Wavelength) for Ctrl_Wavelength
    main.o(i.UI_ProWavelength) refers to ts100_draw.o(i.LCD_Wavelength_Selection_Ex) for LCD_Wavelength_Selection_Ex
    main.o(i.UI_ProWavelength) refers to main.o(i.Ctrl_Power) for Ctrl_Power
    main.o(i.UI_ProWavelength) refers to main.o(.data) for .data
    main.o(i.UI_ProWavelength) refers to main.o(.bss) for .bss
    main.o(i.UI_ProductionAdjust) refers to memcpya.o(.text) for __aeabi_memcpy4
    main.o(i.UI_ProductionAdjust) refers to glcd.o(i.LCD_Clear) for LCD_Clear
    main.o(i.UI_ProductionAdjust) refers to gl_ui.o(i.gl_text) for gl_text
    main.o(i.UI_ProductionAdjust) refers to f2d.o(.text) for __aeabi_f2d
    main.o(i.UI_ProductionAdjust) refers to printfa.o(i.__0sprintf) for __2sprintf
    main.o(i.UI_ProductionAdjust) refers to main.o(i.DrawFocus) for DrawFocus
    main.o(i.UI_ProductionAdjust) refers to main.o(i.ProTick1963IsLive) for ProTick1963IsLive
    main.o(i.UI_ProductionAdjust) refers to main.o(i.ProGet1963State) for ProGet1963State
    main.o(i.UI_ProductionAdjust) refers to main.o(i.TurnOffPower) for TurnOffPower
    main.o(i.UI_ProductionAdjust) refers to key.o(i.KeyPress) for KeyPress
    main.o(i.UI_ProductionAdjust) refers to flash.o(i.WriteFlash) for WriteFlash
    main.o(i.UI_ProductionAdjust) refers to key.o(i.Delay_ms) for Delay_ms
    main.o(i.UI_ProductionAdjust) refers to ts100_draw.o(i.InputPanel) for InputPanel
    main.o(i.UI_ProductionAdjust) refers to base.o(i.atof_) for atof_
    main.o(i.UI_ProductionAdjust) refers to d2f.o(.text) for __aeabi_d2f
    main.o(i.UI_ProductionAdjust) refers to main.o(i.LCD_DrawMain) for LCD_DrawMain
    main.o(i.UI_ProductionAdjust) refers to main.o(.constdata) for .constdata
    main.o(i.UI_ProductionAdjust) refers to main.o(.bss) for .bss
    main.o(i.USART_Configuration) refers to usart.o(i.CommInit) for CommInit
    main.o(i.USART_Configuration) refers to usart.o(i.CommDMAMode) for CommDMAMode
    main.o(i.main) refers to main.o(i.USART_Configuration) for USART_Configuration
    main.o(i.main) refers to system_stm32f10x.o(i.SystemInit) for SystemInit
    main.o(i.main) refers to gl_ui.o(i.gl_ui_setlib) for gl_ui_setlib
    main.o(i.main) refers to gl_ui.o(i.gl_ui_setbkmode) for gl_ui_setbkmode
    main.o(i.main) refers to gl_ui.o(i.gl_ui_setfontcolor) for gl_ui_setfontcolor
    main.o(i.main) refers to gl_ui.o(i.gl_ui_setbkcolor) for gl_ui_setbkcolor
    main.o(i.main) refers to gl_ui.o(i.gl_ui_setpencolor) for gl_ui_setpencolor
    main.o(i.main) refers to systick.o(i.delay_init) for delay_init
    main.o(i.main) refers to main.o(i.Function_IO_config) for Function_IO_config
    main.o(i.main) refers to main.o(i.TIM2_Init) for TIM2_Init
    main.o(i.main) refers to main.o(i.TIM6_Init) for TIM6_Init
    main.o(i.main) refers to main.o(i.TIM3_Init) for TIM3_Init
    main.o(i.main) refers to main.o(i.TIM4_Init) for TIM4_Init
    main.o(i.main) refers to main.o(i.TIM5_Init) for TIM5_Init
    main.o(i.main) refers to main.o(i.NVIC_Configuration) for NVIC_Configuration
    main.o(i.main) refers to main.o(i.ADC_Configuration) for ADC_Configuration
    main.o(i.main) refers to main.o(i.DAC_Configuration) for DAC_Configuration
    main.o(i.main) refers to printfa.o(i.__0printf) for __2printf
    main.o(i.main) refers to main.o(i.TurnOnPower) for TurnOnPower
    main.o(i.main) refers to glcd.o(i.LCD_Initializtion) for LCD_Initializtion
    main.o(i.main) refers to glcd.o(i.LCD_Clear) for LCD_Clear
    main.o(i.main) refers to main.o(i.Check1963) for Check1963
    main.o(i.main) refers to main.o(i.CheckLCD) for CheckLCD
    main.o(i.main) refers to glcd.o(i.LCD_SetBacklight) for LCD_SetBacklight
    main.o(i.main) refers to main.o(i.FLASH_Configuration) for FLASH_Configuration
    main.o(i.main) refers to main.o(i.LCD_DrawMain) for LCD_DrawMain
    main.o(i.main) refers to printfa.o(i.__0sprintf) for __2sprintf
    main.o(i.main) refers to main.o(i.ProGet1963State) for ProGet1963State
    main.o(i.main) refers to main.o(i.ProTick1963IsLive) for ProTick1963IsLive
    main.o(i.main) refers to main.o(i.UI_ProRedraw) for UI_ProRedraw
    main.o(i.main) refers to main.o(i.UI_ProRedLight_ShutdownTimer) for UI_ProRedLight_ShutdownTimer
    main.o(i.main) refers to main.o(i.UI_ProWavelength) for UI_ProWavelength
    main.o(i.main) refers to main.o(i.UI_ProPower) for UI_ProPower
    main.o(i.main) refers to main.o(i.UI_ProMode) for UI_ProMode
    main.o(i.main) refers to main.o(i.TurnOffPower) for TurnOffPower
    main.o(i.main) refers to main.o(i.ProChargerMonitor) for ProChargerMonitor
    main.o(i.main) refers to main.o(i.ProTimerShutdown) for ProTimerShutdown
    main.o(i.main) refers to main.o(i.AutoCtrlPower) for AutoCtrlPower
    main.o(i.main) refers to main.o(i.IsHacker) for IsHacker
    main.o(i.main) refers to zimo_st9.o(.data) for p_zm_step_st9
    main.o(i.main) refers to zimo_st9.o(.data) for p_zm_ascii_st9
    main.o(i.main) refers to main.o(.data) for .data
    main.o(i.main) refers to main.o(.constdata) for .constdata
    main.o(i.main) refers to main.o(.bss) for .bss
    stm32f10x_it.o(i.DMA1_Channel2_IRQHandler) refers to stm32f10x_dma.o(i.DMA_GetITStatus) for DMA_GetITStatus
    stm32f10x_it.o(i.DMA1_Channel2_IRQHandler) refers to stm32f10x_dma.o(i.DMA_ClearITPendingBit) for DMA_ClearITPendingBit
    stm32f10x_it.o(i.DMA1_Channel3_IRQHandler) refers to stm32f10x_dma.o(i.DMA_GetITStatus) for DMA_GetITStatus
    stm32f10x_it.o(i.DMA1_Channel3_IRQHandler) refers to printfa.o(i.__0printf) for __2printf
    stm32f10x_it.o(i.DMA1_Channel3_IRQHandler) refers to usart.o(i.CommTurnBuffer) for CommTurnBuffer
    stm32f10x_it.o(i.DMA1_Channel3_IRQHandler) refers to stm32f10x_dma.o(i.DMA_ClearITPendingBit) for DMA_ClearITPendingBit
    stm32f10x_it.o(i.DMA1_Channel3_IRQHandler) refers to main.o(.data) for g_recvflag
    stm32f10x_it.o(i.DMA1_Channel4_IRQHandler) refers to stm32f10x_dma.o(i.DMA_GetITStatus) for DMA_GetITStatus
    stm32f10x_it.o(i.DMA1_Channel4_IRQHandler) refers to stm32f10x_dma.o(i.DMA_ClearITPendingBit) for DMA_ClearITPendingBit
    stm32f10x_it.o(i.DMA1_Channel5_IRQHandler) refers to stm32f10x_dma.o(i.DMA_GetITStatus) for DMA_GetITStatus
    stm32f10x_it.o(i.DMA1_Channel5_IRQHandler) refers to printfa.o(i.__0printf) for __2printf
    stm32f10x_it.o(i.DMA1_Channel5_IRQHandler) refers to usart.o(i.CommTurnBuffer) for CommTurnBuffer
    stm32f10x_it.o(i.DMA1_Channel5_IRQHandler) refers to stm32f10x_dma.o(i.DMA_ClearITPendingBit) for DMA_ClearITPendingBit
    stm32f10x_it.o(i.DMA1_Channel5_IRQHandler) refers to main.o(.data) for g_recvflag
    stm32f10x_it.o(i.DMA1_Channel6_IRQHandler) refers to stm32f10x_dma.o(i.DMA_GetITStatus) for DMA_GetITStatus
    stm32f10x_it.o(i.DMA1_Channel6_IRQHandler) refers to printfa.o(i.__0printf) for __2printf
    stm32f10x_it.o(i.DMA1_Channel6_IRQHandler) refers to usart.o(i.CommTurnBuffer) for CommTurnBuffer
    stm32f10x_it.o(i.DMA1_Channel6_IRQHandler) refers to stm32f10x_dma.o(i.DMA_ClearITPendingBit) for DMA_ClearITPendingBit
    stm32f10x_it.o(i.DMA1_Channel6_IRQHandler) refers to main.o(.data) for g_recvflag
    stm32f10x_it.o(i.DMA1_Channel7_IRQHandler) refers to stm32f10x_dma.o(i.DMA_GetITStatus) for DMA_GetITStatus
    stm32f10x_it.o(i.DMA1_Channel7_IRQHandler) refers to stm32f10x_dma.o(i.DMA_ClearITPendingBit) for DMA_ClearITPendingBit
    stm32f10x_it.o(i.EXTI1_IRQHandler) refers to stm32f10x_exti.o(i.EXTI_GetITStatus) for EXTI_GetITStatus
    stm32f10x_it.o(i.EXTI1_IRQHandler) refers to gl_key.o(i.gl_key_exti) for gl_key_exti
    stm32f10x_it.o(i.EXTI1_IRQHandler) refers to stm32f10x_exti.o(i.EXTI_ClearITPendingBit) for EXTI_ClearITPendingBit
    stm32f10x_it.o(i.EXTI2_IRQHandler) refers to stm32f10x_exti.o(i.EXTI_GetITStatus) for EXTI_GetITStatus
    stm32f10x_it.o(i.EXTI2_IRQHandler) refers to gl_key.o(i.gl_key_exti) for gl_key_exti
    stm32f10x_it.o(i.EXTI2_IRQHandler) refers to stm32f10x_exti.o(i.EXTI_ClearITPendingBit) for EXTI_ClearITPendingBit
    stm32f10x_it.o(i.EXTI3_IRQHandler) refers to stm32f10x_exti.o(i.EXTI_GetITStatus) for EXTI_GetITStatus
    stm32f10x_it.o(i.EXTI3_IRQHandler) refers to gl_key.o(i.gl_key_exti) for gl_key_exti
    stm32f10x_it.o(i.EXTI3_IRQHandler) refers to stm32f10x_exti.o(i.EXTI_ClearITPendingBit) for EXTI_ClearITPendingBit
    stm32f10x_it.o(i.EXTI9_5_IRQHandler) refers to stm32f10x_exti.o(i.EXTI_GetITStatus) for EXTI_GetITStatus
    stm32f10x_it.o(i.EXTI9_5_IRQHandler) refers to gl_key.o(i.gl_key_exti) for gl_key_exti
    stm32f10x_it.o(i.EXTI9_5_IRQHandler) refers to stm32f10x_exti.o(i.EXTI_ClearITPendingBit) for EXTI_ClearITPendingBit
    stm32f10x_it.o(i.TIM2_IRQHandler) refers to stm32f10x_tim.o(i.TIM_GetITStatus) for TIM_GetITStatus
    stm32f10x_it.o(i.TIM2_IRQHandler) refers to stm32f10x_gpio.o(i.GPIO_ReadInputDataBit) for GPIO_ReadInputDataBit
    stm32f10x_it.o(i.TIM2_IRQHandler) refers to main.o(i.Ctrl_RedLight) for Ctrl_RedLight
    stm32f10x_it.o(i.TIM2_IRQHandler) refers to ts100_draw.o(i.LCD_RedLight_Show) for LCD_RedLight_Show
    stm32f10x_it.o(i.TIM2_IRQHandler) refers to stm32f10x_tim.o(i.TIM_ClearITPendingBit) for TIM_ClearITPendingBit
    stm32f10x_it.o(i.TIM2_IRQHandler) refers to main.o(.data) for SysTickCounter
    stm32f10x_it.o(i.TIM2_IRQHandler) refers to main.o(.data) for g_onoff_en
    stm32f10x_it.o(i.TIM2_IRQHandler) refers to main.o(.data) for powerDownDelayCnt
    stm32f10x_it.o(i.TIM2_IRQHandler) refers to main.o(.data) for g_red_delay_100ms
    stm32f10x_it.o(i.TIM2_IRQHandler) refers to main.o(.data) for LCD_GetPoint_EN
    stm32f10x_it.o(i.TIM2_IRQHandler) refers to main.o(.data) for LCD_GetPoint_Counter
    stm32f10x_it.o(i.TIM3_IRQHandler) refers to stm32f10x_tim.o(i.TIM_GetITStatus) for TIM_GetITStatus
    stm32f10x_it.o(i.TIM3_IRQHandler) refers to stm32f10x_gpio.o(i.GPIO_ResetBits) for GPIO_ResetBits
    stm32f10x_it.o(i.TIM3_IRQHandler) refers to stm32f10x_gpio.o(i.GPIO_SetBits) for GPIO_SetBits
    stm32f10x_it.o(i.TIM3_IRQHandler) refers to stm32f10x_tim.o(i.TIM_ClearITPendingBit) for TIM_ClearITPendingBit
    stm32f10x_it.o(i.TIM3_IRQHandler) refers to main.o(.data) for FLAG_1310
    stm32f10x_it.o(i.TIM4_IRQHandler) refers to stm32f10x_tim.o(i.TIM_GetITStatus) for TIM_GetITStatus
    stm32f10x_it.o(i.TIM4_IRQHandler) refers to stm32f10x_gpio.o(i.GPIO_ResetBits) for GPIO_ResetBits
    stm32f10x_it.o(i.TIM4_IRQHandler) refers to stm32f10x_gpio.o(i.GPIO_SetBits) for GPIO_SetBits
    stm32f10x_it.o(i.TIM4_IRQHandler) refers to stm32f10x_tim.o(i.TIM_ClearITPendingBit) for TIM_ClearITPendingBit
    stm32f10x_it.o(i.TIM4_IRQHandler) refers to main.o(.data) for FLAG_1490
    stm32f10x_it.o(i.TIM5_IRQHandler) refers to stm32f10x_tim.o(i.TIM_GetITStatus) for TIM_GetITStatus
    stm32f10x_it.o(i.TIM5_IRQHandler) refers to stm32f10x_gpio.o(i.GPIO_ResetBits) for GPIO_ResetBits
    stm32f10x_it.o(i.TIM5_IRQHandler) refers to stm32f10x_gpio.o(i.GPIO_SetBits) for GPIO_SetBits
    stm32f10x_it.o(i.TIM5_IRQHandler) refers to stm32f10x_tim.o(i.TIM_ClearITPendingBit) for TIM_ClearITPendingBit
    stm32f10x_it.o(i.TIM5_IRQHandler) refers to main.o(.data) for FLAG_1550
    stm32f10x_it.o(i.TIM6_IRQHandler) refers to stm32f10x_tim.o(i.TIM_GetITStatus) for TIM_GetITStatus
    stm32f10x_it.o(i.TIM6_IRQHandler) refers to stm32f10x_tim.o(i.TIM_ClearITPendingBit) for TIM_ClearITPendingBit
    stm32f10x_it.o(i.TIM6_IRQHandler) refers to main.o(.data) for g_ad_ms
    stm32f10x_it.o(i.TIM6_IRQHandler) refers to main.o(.data) for g_adjust_ms
    stm32f10x_it.o(i.TIM6_IRQHandler) refers to key.o(.data) for g_delay_ms
    stm32f10x_it.o(i.TIM6_IRQHandler) refers to main.o(.data) for g_lcdbug_ms
    stm32f10x_it.o(i.TIM6_IRQHandler) refers to main.o(.data) for g_debug_ms
    gl_key.o(i.gl_key_down) refers to gl_key.o(.bss) for .bss
    gl_key.o(i.gl_key_exti) refers to stm32f10x_gpio.o(i.GPIO_ReadInputDataBit) for GPIO_ReadInputDataBit
    gl_key.o(i.gl_key_exti) refers to gl_key.o(.bss) for .bss
    gl_key.o(i.gl_key_exti) refers to gl_key.o(.data) for .data
    gl_key.o(i.gl_key_init) refers to stm32f10x_rcc.o(i.RCC_APB2PeriphClockCmd) for RCC_APB2PeriphClockCmd
    gl_key.o(i.gl_key_init) refers to stm32f10x_gpio.o(i.GPIO_Init) for GPIO_Init
    gl_key.o(i.gl_key_init) refers to stm32f10x_exti.o(i.EXTI_Init) for EXTI_Init
    gl_key.o(i.gl_key_init) refers to misc.o(i.NVIC_Init) for NVIC_Init
    gl_key.o(i.gl_key_init) refers to gl_key.o(.bss) for .bss
    gl_key.o(i.gl_key_scan) refers to stm32f10x_gpio.o(i.GPIO_ReadInputDataBit) for GPIO_ReadInputDataBit
    gl_key.o(i.gl_key_scan) refers to printfa.o(i.__0printf) for __2printf
    gl_key.o(i.gl_key_scan) refers to gl_key.o(.data) for .data
    gl_key.o(i.gl_key_scan) refers to gl_key.o(.bss) for .bss
    usart.o(i.CommDMAMode) refers to stm32f10x_rcc.o(i.RCC_AHBPeriphClockCmd) for RCC_AHBPeriphClockCmd
    usart.o(i.CommDMAMode) refers to stm32f10x_dma.o(i.DMA_DeInit) for DMA_DeInit
    usart.o(i.CommDMAMode) refers to stm32f10x_dma.o(i.DMA_Init) for DMA_Init
    usart.o(i.CommDMAMode) refers to stm32f10x_dma.o(i.DMA_ITConfig) for DMA_ITConfig
    usart.o(i.CommDMAMode) refers to stm32f10x_dma.o(i.DMA_ClearFlag) for DMA_ClearFlag
    usart.o(i.CommDMAMode) refers to misc.o(i.NVIC_SetVectorTable) for NVIC_SetVectorTable
    usart.o(i.CommDMAMode) refers to misc.o(i.NVIC_PriorityGroupConfig) for NVIC_PriorityGroupConfig
    usart.o(i.CommDMAMode) refers to misc.o(i.NVIC_Init) for NVIC_Init
    usart.o(i.CommDMAMode) refers to usart.o(i.CommRecv) for CommRecv
    usart.o(i.CommDMAMode) refers to usart.o(.data) for .data
    usart.o(i.CommDMAMode) refers to usart.o(.bss) for .bss
    usart.o(i.CommDMAStop) refers to stm32f10x_dma.o(i.DMA_Cmd) for DMA_Cmd
    usart.o(i.CommDMAStop) refers to stm32f10x_dma.o(i.DMA_ClearFlag) for DMA_ClearFlag
    usart.o(i.CommDMAStop) refers to usart.o(.bss) for .bss
    usart.o(i.CommInit) refers to memcpya.o(.text) for __aeabi_memcpy4
    usart.o(i.CommInit) refers to stm32f10x_rcc.o(i.RCC_APB2PeriphClockCmd) for RCC_APB2PeriphClockCmd
    usart.o(i.CommInit) refers to stm32f10x_gpio.o(i.GPIO_PinRemapConfig) for GPIO_PinRemapConfig
    usart.o(i.CommInit) refers to stm32f10x_rcc.o(i.RCC_APB1PeriphClockCmd) for RCC_APB1PeriphClockCmd
    usart.o(i.CommInit) refers to stm32f10x_gpio.o(i.GPIO_Init) for GPIO_Init
    usart.o(i.CommInit) refers to stm32f10x_usart.o(i.USART_Init) for USART_Init
    usart.o(i.CommInit) refers to stm32f10x_usart.o(i.USART_Cmd) for USART_Cmd
    usart.o(i.CommInit) refers to stm32f10x_usart.o(i.USART_DMACmd) for USART_DMACmd
    usart.o(i.CommInit) refers to usart.o(.constdata) for .constdata
    usart.o(i.CommInit) refers to usart.o(.bss) for .bss
    usart.o(i.CommInit) refers to usart.o(.data) for .data
    usart.o(i.CommRead) refers to stm32f10x_dma.o(i.DMA_ClearFlag) for DMA_ClearFlag
    usart.o(i.CommRead) refers to usart.o(i.CommCopyToUser) for CommCopyToUser
    usart.o(i.CommRead) refers to usart.o(.bss) for .bss
    usart.o(i.CommRecv) refers to stm32f10x_dma.o(i.DMA_GetFlagStatus) for DMA_GetFlagStatus
    usart.o(i.CommRecv) refers to stm32f10x_dma.o(i.DMA_ClearFlag) for DMA_ClearFlag
    usart.o(i.CommRecv) refers to stm32f10x_dma.o(i.DMA_Cmd) for DMA_Cmd
    usart.o(i.CommRecv) refers to usart.o(.bss) for .bss
    usart.o(i.CommSend) refers to stm32f10x_dma.o(i.DMA_GetFlagStatus) for DMA_GetFlagStatus
    usart.o(i.CommSend) refers to stm32f10x_dma.o(i.DMA_ClearFlag) for DMA_ClearFlag
    usart.o(i.CommSend) refers to stm32f10x_dma.o(i.DMA_Cmd) for DMA_Cmd
    usart.o(i.CommSend) refers to usart.o(i.CommCopyToBuf) for CommCopyToBuf
    usart.o(i.CommSend) refers to usart.o(.bss) for .bss
    usart.o(i.CommTurnBuffer) refers to usart.o(i.CommRecv) for CommRecv
    usart.o(i.CommTurnBuffer) refers to usart.o(.bss) for .bss
    usart.o(i.fputc) refers to stm32f10x_usart.o(i.USART_SendData) for USART_SendData
    usart.o(i.fputc) refers to stm32f10x_usart.o(i.USART_GetFlagStatus) for USART_GetFlagStatus
    usart.o(i.fputc) refers to usart.o(.data) for .data
    ts100_draw.o(i.InputPanel) refers to memcpya.o(.text) for __aeabi_memcpy4
    ts100_draw.o(i.InputPanel) refers to gl_ui.o(i.gl_ui_setfontcolor) for gl_ui_setfontcolor
    ts100_draw.o(i.InputPanel) refers to gl_ui.o(i.gl_ui_setpencolor) for gl_ui_setpencolor
    ts100_draw.o(i.InputPanel) refers to gl_ui.o(i.gl_ui_setbrushcolor) for gl_ui_setbrushcolor
    ts100_draw.o(i.InputPanel) refers to gl_ui.o(i.gl_ui_setbkcolor) for gl_ui_setbkcolor
    ts100_draw.o(i.InputPanel) refers to gl_ui.o(i.gl_fill_rect) for gl_fill_rect
    ts100_draw.o(i.InputPanel) refers to gl_ui.o(i.gl_text) for gl_text
    ts100_draw.o(i.InputPanel) refers to key.o(i.KeyPress) for KeyPress
    ts100_draw.o(i.InputPanel) refers to main.o(i.ProTick1963IsLive) for ProTick1963IsLive
    ts100_draw.o(i.InputPanel) refers to main.o(i.TurnOffPower) for TurnOffPower
    ts100_draw.o(i.InputPanel) refers to ts100_draw.o(.constdata) for .constdata
    ts100_draw.o(i.LCD_Batter_Show) refers to ts100_draw.o(i.LCD_FLSAH_DrawPicture) for LCD_FLSAH_DrawPicture
    ts100_draw.o(i.LCD_Batter_Show) refers to picturedata.o(.constdata) for gImage_battery_0_4
    ts100_draw.o(i.LCD_Batter_Show) refers to picturedata.o(.constdata) for gImage_battery_1_4
    ts100_draw.o(i.LCD_Batter_Show) refers to picturedata.o(.constdata) for gImage_battery_2_4
    ts100_draw.o(i.LCD_Batter_Show) refers to picturedata.o(.constdata) for gImage_battery_3_4
    ts100_draw.o(i.LCD_Batter_Show) refers to picturedata.o(.constdata) for gImage_battery_4_4
    ts100_draw.o(i.LCD_Batter_Show) refers to picturedata.o(.constdata) for gImage_battery_ac
    ts100_draw.o(i.LCD_FLSAH_DrawPicture) refers to memseta.o(.text) for __aeabi_memclr4
    ts100_draw.o(i.LCD_FLSAH_DrawPicture) refers to memcpya.o(.text) for __aeabi_memcpy
    ts100_draw.o(i.LCD_FLSAH_DrawPicture) refers to glcd.o(i.LCD_SetPoint) for LCD_SetPoint
    ts100_draw.o(i.LCD_OperatMode_Selection) refers to ts100_draw.o(i.Show_Matrix_zimo) for Show_Matrix_zimo
    ts100_draw.o(i.LCD_OperatMode_Selection) refers to glcd.o(i.LCD_SetPoint) for LCD_SetPoint
    ts100_draw.o(i.LCD_OperatMode_Selection) refers to picturedata.o(.data) for Num_02
    ts100_draw.o(i.LCD_OperatMode_Selection) refers to picturedata.o(.data) for Num_0K
    ts100_draw.o(i.LCD_OperatMode_Selection) refers to picturedata.o(.data) for Num_0H
    ts100_draw.o(i.LCD_OperatMode_Selection) refers to picturedata.o(.data) for Num_0z
    ts100_draw.o(i.LCD_OperatMode_Selection) refers to picturedata.o(.data) for Num_0C
    ts100_draw.o(i.LCD_OperatMode_Selection) refers to picturedata.o(.data) for Num_0W
    ts100_draw.o(i.LCD_OperatMode_Selection) refers to picturedata.o(.data) for Num_00
    ts100_draw.o(i.LCD_OperatMode_Selection) refers to picturedata.o(.data) for Num_0dian
    ts100_draw.o(i.LCD_OperatMode_Selection) refers to picturedata.o(.data) for Num_07
    ts100_draw.o(i.LCD_OperatMode_Selection) refers to picturedata.o(.data) for Num_01
    ts100_draw.o(i.LCD_Power_Control_Selection_Ex) refers to memcpya.o(.text) for __aeabi_memcpy4
    ts100_draw.o(i.LCD_Power_Control_Selection_Ex) refers to ts100_draw.o(i.Show_Matrix_zimo) for Show_Matrix_zimo
    ts100_draw.o(i.LCD_Power_Control_Selection_Ex) refers to ts100_draw.o(i.LCD_FLSAH_DrawPicture) for LCD_FLSAH_DrawPicture
    ts100_draw.o(i.LCD_Power_Control_Selection_Ex) refers to ts100_draw.o(.constdata) for .constdata
    ts100_draw.o(i.LCD_Power_Control_Selection_Ex) refers to picturedata.o(.data) for Num_fuhao
    ts100_draw.o(i.LCD_Power_Control_Selection_Ex) refers to picturedata.o(.constdata) for gImage_dbm
    ts100_draw.o(i.LCD_RedLight_Show) refers to ts100_draw.o(i.LCD_FLSAH_DrawPicture) for LCD_FLSAH_DrawPicture
    ts100_draw.o(i.LCD_RedLight_Show) refers to picturedata.o(.constdata) for gImage_redlight_on
    ts100_draw.o(i.LCD_RedLight_Show) refers to picturedata.o(.constdata) for gImage_redlight_off
    ts100_draw.o(i.LCD_Timing_Display) refers to ts100_draw.o(i.LCD_FLSAH_DrawPicture) for LCD_FLSAH_DrawPicture
    ts100_draw.o(i.LCD_Timing_Display) refers to glcd.o(i.GUI_Text) for GUI_Text
    ts100_draw.o(i.LCD_Timing_Display) refers to picturedata.o(.constdata) for gImage_t_off
    ts100_draw.o(i.LCD_Timing_Display) refers to picturedata.o(.constdata) for gImage_t_10min
    ts100_draw.o(i.LCD_Wavelength_Selection_Ex) refers to ts100_draw.o(i.Show_Matrix_zimo) for Show_Matrix_zimo
    ts100_draw.o(i.LCD_Wavelength_Selection_Ex) refers to picturedata.o(.data) for Num_01
    ts100_draw.o(i.LCD_Wavelength_Selection_Ex) refers to picturedata.o(.data) for Num_05
    ts100_draw.o(i.LCD_Wavelength_Selection_Ex) refers to picturedata.o(.data) for Num_00
    ts100_draw.o(i.LCD_Wavelength_Selection_Ex) refers to picturedata.o(.data) for Num_0n
    ts100_draw.o(i.LCD_Wavelength_Selection_Ex) refers to picturedata.o(.data) for Num_0m
    ts100_draw.o(i.LCD_Wavelength_Selection_Ex) refers to picturedata.o(.data) for Num_03
    ts100_draw.o(i.LCD_Wavelength_Selection_Ex) refers to picturedata.o(.data) for Num_04
    ts100_draw.o(i.LCD_Wavelength_Selection_Ex) refers to picturedata.o(.data) for Num_09
    ts100_draw.o(i.Show_Matrix_zimo) refers to glcd.o(i.LCD_SetPoint) for LCD_SetPoint
    ts100_draw.o(i.UI_DebugMain) refers to memcpya.o(.text) for __aeabi_memcpy4
    ts100_draw.o(i.UI_DebugMain) refers to memseta.o(.text) for __aeabi_memclr4
    ts100_draw.o(i.UI_DebugMain) refers to gl_ui.o(i.gl_ui_setfontcolor) for gl_ui_setfontcolor
    ts100_draw.o(i.UI_DebugMain) refers to gl_ui.o(i.gl_ui_setpencolor) for gl_ui_setpencolor
    ts100_draw.o(i.UI_DebugMain) refers to gl_ui.o(i.gl_ui_setbrushcolor) for gl_ui_setbrushcolor
    ts100_draw.o(i.UI_DebugMain) refers to gl_ui.o(i.gl_ui_setbkcolor) for gl_ui_setbkcolor
    ts100_draw.o(i.UI_DebugMain) refers to gl_ui.o(i.gl_clear) for gl_clear
    ts100_draw.o(i.UI_DebugMain) refers to gl_ui.o(i.gl_text) for gl_text
    ts100_draw.o(i.UI_DebugMain) refers to printfa.o(i.__0sprintf) for __2sprintf
    ts100_draw.o(i.UI_DebugMain) refers to dflti.o(.text) for __aeabi_i2d
    ts100_draw.o(i.UI_DebugMain) refers to ddiv.o(.text) for __aeabi_ddiv
    ts100_draw.o(i.UI_DebugMain) refers to d2f.o(.text) for __aeabi_d2f
    ts100_draw.o(i.UI_DebugMain) refers to f2d.o(.text) for __aeabi_f2d
    ts100_draw.o(i.UI_DebugMain) refers to main.o(i.Ctrl_Operating_Mode) for Ctrl_Operating_Mode
    ts100_draw.o(i.UI_DebugMain) refers to main.o(i.Ctrl_Wavelength) for Ctrl_Wavelength
    ts100_draw.o(i.UI_DebugMain) refers to ui.o(i.draw_arrow) for draw_arrow
    ts100_draw.o(i.UI_DebugMain) refers to main.o(i.AutoCtrlPower) for AutoCtrlPower
    ts100_draw.o(i.UI_DebugMain) refers to main.o(i.GetAD) for GetAD
    ts100_draw.o(i.UI_DebugMain) refers to printfa.o(i.__0printf) for __2printf
    ts100_draw.o(i.UI_DebugMain) refers to key.o(i.KeyPress) for KeyPress
    ts100_draw.o(i.UI_DebugMain) refers to stm32f10x_dac.o(i.DAC_SetChannel1Data) for DAC_SetChannel1Data
    ts100_draw.o(i.UI_DebugMain) refers to stm32f10x_dac.o(i.DAC_SoftwareTriggerCmd) for DAC_SoftwareTriggerCmd
    ts100_draw.o(i.UI_DebugMain) refers to gl_ui.o(i.gl_ui_setbkmode) for gl_ui_setbkmode
    ts100_draw.o(i.UI_DebugMain) refers to ts100_draw.o(i.InputPanel) for InputPanel
    ts100_draw.o(i.UI_DebugMain) refers to base.o(i.atof_) for atof_
    ts100_draw.o(i.UI_DebugMain) refers to dfixi.o(.text) for __aeabi_d2iz
    ts100_draw.o(i.UI_DebugMain) refers to atoi.o(.text) for atoi
    ts100_draw.o(i.UI_DebugMain) refers to fmul.o(.text) for __aeabi_fmul
    ts100_draw.o(i.UI_DebugMain) refers to ffixi.o(.text) for __aeabi_f2iz
    ts100_draw.o(i.UI_DebugMain) refers to main.o(i.Ctrl_Power) for Ctrl_Power
    ts100_draw.o(i.UI_DebugMain) refers to ts100_draw.o(.constdata) for .constdata
    ts100_draw.o(i.UI_DebugMain) refers to main.o(.bss) for g_power
    ts100_draw.o(i.UI_DebugMain) refers to main.o(.data) for Operating_Mode
    ts100_draw.o(i.UI_DebugMain) refers to main.o(.data) for g_debug_ms
    ts100_draw.o(i.UI_DebugMain) refers to main.o(i.UI_ProductionAdjust) for UI_ProductionAdjust
    ts100_draw.o(i.UI_DebugMain) refers to main.o(i.DrawFocus) for DrawFocus
    ts100_draw.o(.constdata) refers to picturedata.o(.data) for Num_0
    ts100_draw.o(.constdata) refers to picturedata.o(.data) for Num_1
    ts100_draw.o(.constdata) refers to picturedata.o(.data) for Num_2
    ts100_draw.o(.constdata) refers to picturedata.o(.data) for Num_3
    ts100_draw.o(.constdata) refers to picturedata.o(.data) for Num_4
    ts100_draw.o(.constdata) refers to picturedata.o(.data) for Num_5
    ts100_draw.o(.constdata) refers to picturedata.o(.data) for Num_6
    ts100_draw.o(.constdata) refers to picturedata.o(.data) for Num_7
    ts100_draw.o(.constdata) refers to picturedata.o(.data) for Num_8
    ts100_draw.o(.constdata) refers to picturedata.o(.data) for Num_9
    ts100_draw.o(.constdata) refers to ts100_draw.o(.conststring) for .conststring
    base.o(i.atof_) refers to dfltui.o(.text) for __aeabi_ui2d
    base.o(i.atof_) refers to dmul.o(.text) for __aeabi_dmul
    base.o(i.atof_) refers to dadd.o(.text) for __aeabi_dadd
    base.o(i.atof_) refers to ddiv.o(.text) for __aeabi_ddiv
    stm32f10x_rcc.o(i.RCC_GetClocksFreq) refers to stm32f10x_rcc.o(.data) for .data
    stm32f10x_rcc.o(i.RCC_WaitForHSEStartUp) refers to stm32f10x_rcc.o(i.RCC_GetFlagStatus) for RCC_GetFlagStatus
    stm32f10x_gpio.o(i.GPIO_AFIODeInit) refers to stm32f10x_rcc.o(i.RCC_APB2PeriphResetCmd) for RCC_APB2PeriphResetCmd
    stm32f10x_gpio.o(i.GPIO_DeInit) refers to stm32f10x_rcc.o(i.RCC_APB2PeriphResetCmd) for RCC_APB2PeriphResetCmd
    stm32f10x_spi.o(i.I2S_Init) refers to stm32f10x_rcc.o(i.RCC_GetClocksFreq) for RCC_GetClocksFreq
    stm32f10x_spi.o(i.SPI_I2S_DeInit) refers to stm32f10x_rcc.o(i.RCC_APB2PeriphResetCmd) for RCC_APB2PeriphResetCmd
    stm32f10x_spi.o(i.SPI_I2S_DeInit) refers to stm32f10x_rcc.o(i.RCC_APB1PeriphResetCmd) for RCC_APB1PeriphResetCmd
    stm32f10x_usart.o(i.USART_DeInit) refers to stm32f10x_rcc.o(i.RCC_APB2PeriphResetCmd) for RCC_APB2PeriphResetCmd
    stm32f10x_usart.o(i.USART_DeInit) refers to stm32f10x_rcc.o(i.RCC_APB1PeriphResetCmd) for RCC_APB1PeriphResetCmd
    stm32f10x_usart.o(i.USART_Init) refers to stm32f10x_rcc.o(i.RCC_GetClocksFreq) for RCC_GetClocksFreq
    stm32f10x_i2c.o(i.I2C_DeInit) refers to stm32f10x_rcc.o(i.RCC_APB1PeriphResetCmd) for RCC_APB1PeriphResetCmd
    stm32f10x_i2c.o(i.I2C_Init) refers to stm32f10x_rcc.o(i.RCC_GetClocksFreq) for RCC_GetClocksFreq
    stm32f10x_tim.o(i.TIM_DeInit) refers to stm32f10x_rcc.o(i.RCC_APB1PeriphResetCmd) for RCC_APB1PeriphResetCmd
    stm32f10x_tim.o(i.TIM_DeInit) refers to stm32f10x_rcc.o(i.RCC_APB2PeriphResetCmd) for RCC_APB2PeriphResetCmd
    stm32f10x_tim.o(i.TIM_ETRClockMode1Config) refers to stm32f10x_tim.o(i.TIM_ETRConfig) for TIM_ETRConfig
    stm32f10x_tim.o(i.TIM_ETRClockMode2Config) refers to stm32f10x_tim.o(i.TIM_ETRConfig) for TIM_ETRConfig
    stm32f10x_tim.o(i.TIM_ICInit) refers to stm32f10x_tim.o(i.TI1_Config) for TI1_Config
    stm32f10x_tim.o(i.TIM_ICInit) refers to stm32f10x_tim.o(i.TIM_SetIC1Prescaler) for TIM_SetIC1Prescaler
    stm32f10x_tim.o(i.TIM_ICInit) refers to stm32f10x_tim.o(i.TI2_Config) for TI2_Config
    stm32f10x_tim.o(i.TIM_ICInit) refers to stm32f10x_tim.o(i.TIM_SetIC2Prescaler) for TIM_SetIC2Prescaler
    stm32f10x_tim.o(i.TIM_ICInit) refers to stm32f10x_tim.o(i.TIM_SetIC3Prescaler) for TIM_SetIC3Prescaler
    stm32f10x_tim.o(i.TIM_ICInit) refers to stm32f10x_tim.o(i.TIM_SetIC4Prescaler) for TIM_SetIC4Prescaler
    stm32f10x_tim.o(i.TIM_ITRxExternalClockConfig) refers to stm32f10x_tim.o(i.TIM_SelectInputTrigger) for TIM_SelectInputTrigger
    stm32f10x_tim.o(i.TIM_PWMIConfig) refers to stm32f10x_tim.o(i.TI2_Config) for TI2_Config
    stm32f10x_tim.o(i.TIM_PWMIConfig) refers to stm32f10x_tim.o(i.TIM_SetIC2Prescaler) for TIM_SetIC2Prescaler
    stm32f10x_tim.o(i.TIM_PWMIConfig) refers to stm32f10x_tim.o(i.TI1_Config) for TI1_Config
    stm32f10x_tim.o(i.TIM_PWMIConfig) refers to stm32f10x_tim.o(i.TIM_SetIC1Prescaler) for TIM_SetIC1Prescaler
    stm32f10x_tim.o(i.TIM_TIxExternalClockConfig) refers to stm32f10x_tim.o(i.TI1_Config) for TI1_Config
    stm32f10x_tim.o(i.TIM_TIxExternalClockConfig) refers to stm32f10x_tim.o(i.TIM_SelectInputTrigger) for TIM_SelectInputTrigger
    stm32f10x_tim.o(i.TIM_TIxExternalClockConfig) refers to stm32f10x_tim.o(i.TI2_Config) for TI2_Config
    stm32f10x_adc.o(i.ADC_DeInit) refers to stm32f10x_rcc.o(i.RCC_APB2PeriphResetCmd) for RCC_APB2PeriphResetCmd
    stm32f10x_dac.o(i.DAC_DeInit) refers to stm32f10x_rcc.o(i.RCC_APB1PeriphResetCmd) for RCC_APB1PeriphResetCmd
    stm32f10x_flash.o(i.FLASH_EnableWriteProtection) refers to stm32f10x_flash.o(i.FLASH_WaitForLastOperation) for FLASH_WaitForLastOperation
    stm32f10x_flash.o(i.FLASH_EraseAllBank1Pages) refers to stm32f10x_flash.o(i.FLASH_WaitForLastBank1Operation) for FLASH_WaitForLastBank1Operation
    stm32f10x_flash.o(i.FLASH_EraseAllPages) refers to stm32f10x_flash.o(i.FLASH_WaitForLastOperation) for FLASH_WaitForLastOperation
    stm32f10x_flash.o(i.FLASH_EraseOptionBytes) refers to stm32f10x_flash.o(i.FLASH_GetReadOutProtectionStatus) for FLASH_GetReadOutProtectionStatus
    stm32f10x_flash.o(i.FLASH_EraseOptionBytes) refers to stm32f10x_flash.o(i.FLASH_WaitForLastOperation) for FLASH_WaitForLastOperation
    stm32f10x_flash.o(i.FLASH_ErasePage) refers to stm32f10x_flash.o(i.FLASH_WaitForLastOperation) for FLASH_WaitForLastOperation
    stm32f10x_flash.o(i.FLASH_ProgramHalfWord) refers to stm32f10x_flash.o(i.FLASH_WaitForLastOperation) for FLASH_WaitForLastOperation
    stm32f10x_flash.o(i.FLASH_ProgramOptionByteData) refers to stm32f10x_flash.o(i.FLASH_WaitForLastOperation) for FLASH_WaitForLastOperation
    stm32f10x_flash.o(i.FLASH_ProgramWord) refers to stm32f10x_flash.o(i.FLASH_WaitForLastOperation) for FLASH_WaitForLastOperation
    stm32f10x_flash.o(i.FLASH_ReadOutProtection) refers to stm32f10x_flash.o(i.FLASH_WaitForLastOperation) for FLASH_WaitForLastOperation
    stm32f10x_flash.o(i.FLASH_UserOptionByteConfig) refers to stm32f10x_flash.o(i.FLASH_WaitForLastOperation) for FLASH_WaitForLastOperation
    stm32f10x_flash.o(i.FLASH_WaitForLastBank1Operation) refers to stm32f10x_flash.o(i.FLASH_GetBank1Status) for FLASH_GetBank1Status
    stm32f10x_flash.o(i.FLASH_WaitForLastOperation) refers to stm32f10x_flash.o(i.FLASH_GetBank1Status) for FLASH_GetBank1Status
    system_stm32f10x.o(i.SystemCoreClockUpdate) refers to system_stm32f10x.o(.data) for .data
    system_stm32f10x.o(i.SystemInit) refers to system_stm32f10x.o(i.SetSysClockTo72) for SetSysClockTo72
    startup_stm32f10x_hd.o(RESET) refers to startup_stm32f10x_hd.o(STACK) for __initial_sp
    startup_stm32f10x_hd.o(RESET) refers to startup_stm32f10x_hd.o(.text) for Reset_Handler
    startup_stm32f10x_hd.o(RESET) refers to stm32f10x_it.o(i.NMI_Handler) for NMI_Handler
    startup_stm32f10x_hd.o(RESET) refers to stm32f10x_it.o(i.HardFault_Handler) for HardFault_Handler
    startup_stm32f10x_hd.o(RESET) refers to stm32f10x_it.o(i.MemManage_Handler) for MemManage_Handler
    startup_stm32f10x_hd.o(RESET) refers to stm32f10x_it.o(i.BusFault_Handler) for BusFault_Handler
    startup_stm32f10x_hd.o(RESET) refers to stm32f10x_it.o(i.UsageFault_Handler) for UsageFault_Handler
    startup_stm32f10x_hd.o(RESET) refers to stm32f10x_it.o(i.SVC_Handler) for SVC_Handler
    startup_stm32f10x_hd.o(RESET) refers to stm32f10x_it.o(i.DebugMon_Handler) for DebugMon_Handler
    startup_stm32f10x_hd.o(RESET) refers to stm32f10x_it.o(i.PendSV_Handler) for PendSV_Handler
    startup_stm32f10x_hd.o(RESET) refers to stm32f10x_it.o(i.EXTI1_IRQHandler) for EXTI1_IRQHandler
    startup_stm32f10x_hd.o(RESET) refers to stm32f10x_it.o(i.EXTI2_IRQHandler) for EXTI2_IRQHandler
    startup_stm32f10x_hd.o(RESET) refers to stm32f10x_it.o(i.EXTI3_IRQHandler) for EXTI3_IRQHandler
    startup_stm32f10x_hd.o(RESET) refers to stm32f10x_it.o(i.DMA1_Channel2_IRQHandler) for DMA1_Channel2_IRQHandler
    startup_stm32f10x_hd.o(RESET) refers to stm32f10x_it.o(i.DMA1_Channel3_IRQHandler) for DMA1_Channel3_IRQHandler
    startup_stm32f10x_hd.o(RESET) refers to stm32f10x_it.o(i.DMA1_Channel4_IRQHandler) for DMA1_Channel4_IRQHandler
    startup_stm32f10x_hd.o(RESET) refers to stm32f10x_it.o(i.DMA1_Channel5_IRQHandler) for DMA1_Channel5_IRQHandler
    startup_stm32f10x_hd.o(RESET) refers to stm32f10x_it.o(i.DMA1_Channel6_IRQHandler) for DMA1_Channel6_IRQHandler
    startup_stm32f10x_hd.o(RESET) refers to stm32f10x_it.o(i.DMA1_Channel7_IRQHandler) for DMA1_Channel7_IRQHandler
    startup_stm32f10x_hd.o(RESET) refers to stm32f10x_it.o(i.ADC1_2_IRQHandler) for ADC1_2_IRQHandler
    startup_stm32f10x_hd.o(RESET) refers to stm32f10x_it.o(i.EXTI9_5_IRQHandler) for EXTI9_5_IRQHandler
    startup_stm32f10x_hd.o(RESET) refers to stm32f10x_it.o(i.TIM2_IRQHandler) for TIM2_IRQHandler
    startup_stm32f10x_hd.o(RESET) refers to stm32f10x_it.o(i.TIM3_IRQHandler) for TIM3_IRQHandler
    startup_stm32f10x_hd.o(RESET) refers to stm32f10x_it.o(i.TIM4_IRQHandler) for TIM4_IRQHandler
    startup_stm32f10x_hd.o(RESET) refers to stm32f10x_it.o(i.TIM5_IRQHandler) for TIM5_IRQHandler
    startup_stm32f10x_hd.o(RESET) refers to stm32f10x_it.o(i.TIM6_IRQHandler) for TIM6_IRQHandler
    startup_stm32f10x_hd.o(.text) refers to system_stm32f10x.o(i.SystemInit) for SystemInit
    startup_stm32f10x_hd.o(.text) refers to entry.o(.ARM.Collect$$$$00000000) for __main
    glcd.o(i.GUI_Chinese) refers to glcd.o(i.PutChinese) for PutChinese
    glcd.o(i.GUI_Text) refers to glcd.o(i.PutChar) for PutChar
    glcd.o(i.GUI_Text_Amplifier16) refers to glcd.o(i.PutChar_Amplifier4) for PutChar_Amplifier4
    glcd.o(i.GUI_Text_Amplifier4) refers to glcd.o(i.PutChar_Amplifier4) for PutChar_Amplifier4
    glcd.o(i.LCD_Clear) refers to gl_ui.o(i.LCD_SetArea) for LCD_SetArea
    glcd.o(i.LCD_Configuration) refers to glcd.o(i.LCD_CtrlLinesConfig) for LCD_CtrlLinesConfig
    glcd.o(i.LCD_Configuration) refers to glcd.o(i.LCD_FSMCConfig) for LCD_FSMCConfig
    glcd.o(i.LCD_CtrlLinesConfig) refers to stm32f10x_rcc.o(i.RCC_AHBPeriphClockCmd) for RCC_AHBPeriphClockCmd
    glcd.o(i.LCD_CtrlLinesConfig) refers to stm32f10x_rcc.o(i.RCC_APB2PeriphClockCmd) for RCC_APB2PeriphClockCmd
    glcd.o(i.LCD_CtrlLinesConfig) refers to stm32f10x_gpio.o(i.GPIO_Init) for GPIO_Init
    glcd.o(i.LCD_CtrlLinesConfig) refers to stm32f10x_gpio.o(i.GPIO_SetBits) for GPIO_SetBits
    glcd.o(i.LCD_DrawLine) refers to glcd.o(i.LCD_SetPoint) for LCD_SetPoint
    glcd.o(i.LCD_EightPoint) refers to glcd.o(i.LCD_SetPoint) for LCD_SetPoint
    glcd.o(i.LCD_FSMCConfig) refers to stm32f10x_fsmc.o(i.FSMC_NORSRAMInit) for FSMC_NORSRAMInit
    glcd.o(i.LCD_FSMCConfig) refers to stm32f10x_fsmc.o(i.FSMC_NORSRAMCmd) for FSMC_NORSRAMCmd
    glcd.o(i.LCD_GetPoint) refers to gl_ui.o(i.LCD_SetArea) for LCD_SetArea
    glcd.o(i.LCD_Initializtion) refers to glcd.o(i.SSD1963_PowerUp) for SSD1963_PowerUp
    glcd.o(i.LCD_Initializtion) refers to glcd.o(i.LCD_SetBacklight) for LCD_SetBacklight
    glcd.o(i.LCD_Initializtion) refers to glcd.o(i.delay_ms) for delay_ms
    glcd.o(i.LCD_Initializtion) refers to glcd.o(i.SSD1963_GPIO_WR) for SSD1963_GPIO_WR
    glcd.o(i.LCD_Initializtion) refers to glcd.o(i.SSD1963_SPI_WriteReg) for SSD1963_SPI_WriteReg
    glcd.o(i.LCD_Initializtion) refers to glcd.o(i.SSD1963_SetCheckFlag) for SSD1963_SetCheckFlag
    glcd.o(i.LCD_MidpointCircle) refers to dfltui.o(.text) for __aeabi_ui2d
    glcd.o(i.LCD_MidpointCircle) refers to dadd.o(.text) for __aeabi_drsub
    glcd.o(i.LCD_MidpointCircle) refers to d2f.o(.text) for __aeabi_d2f
    glcd.o(i.LCD_MidpointCircle) refers to glcd.o(i.LCD_EightPoint) for LCD_EightPoint
    glcd.o(i.LCD_MidpointCircle) refers to dscalb.o(.text) for __ARM_scalbn
    glcd.o(i.LCD_MidpointCircle) refers to f2d.o(.text) for __aeabi_f2d
    glcd.o(i.LCD_MidpointCircle) refers to dflti.o(.text) for __aeabi_i2d
    glcd.o(i.LCD_Rectangle) refers to glcd.o(i.LCD_DrawLine) for LCD_DrawLine
    glcd.o(i.LCD_Rectangle) refers to glcd.o(i.LCD_SetPoint) for LCD_SetPoint
    glcd.o(i.LCD_SetPoint) refers to gl_ui.o(i.LCD_SetArea) for LCD_SetArea
    glcd.o(i.LCD_Triangle_Down) refers to dflti.o(.text) for __aeabi_i2d
    glcd.o(i.LCD_Triangle_Down) refers to dmul.o(.text) for __aeabi_dmul
    glcd.o(i.LCD_Triangle_Down) refers to dscalb.o(.text) for __ARM_scalbn
    glcd.o(i.LCD_Triangle_Down) refers to dfixui.o(.text) for __aeabi_d2uiz
    glcd.o(i.LCD_Triangle_Down) refers to glcd.o(i.LCD_DrawLine) for LCD_DrawLine
    glcd.o(i.LCD_Triangle_Down) refers to ddiv.o(.text) for __aeabi_ddiv
    glcd.o(i.LCD_Triangle_Down) refers to dfltui.o(.text) for __aeabi_ui2d
    glcd.o(i.LCD_Triangle_Down) refers to dadd.o(.text) for __aeabi_dsub
    glcd.o(i.LCD_Triangle_Down) refers to glcd.o(i.LCD_SetPoint) for LCD_SetPoint
    glcd.o(i.LCD_Triangle_Down) refers to cdcmple.o(.text) for __aeabi_cdcmple
    glcd.o(i.LCD_Triangle_Up) refers to dflti.o(.text) for __aeabi_i2d
    glcd.o(i.LCD_Triangle_Up) refers to dmul.o(.text) for __aeabi_dmul
    glcd.o(i.LCD_Triangle_Up) refers to dscalb.o(.text) for __ARM_scalbn
    glcd.o(i.LCD_Triangle_Up) refers to dfixui.o(.text) for __aeabi_d2uiz
    glcd.o(i.LCD_Triangle_Up) refers to glcd.o(i.LCD_DrawLine) for LCD_DrawLine
    glcd.o(i.LCD_Triangle_Up) refers to ddiv.o(.text) for __aeabi_ddiv
    glcd.o(i.LCD_Triangle_Up) refers to dfltui.o(.text) for __aeabi_ui2d
    glcd.o(i.LCD_Triangle_Up) refers to dadd.o(.text) for __aeabi_dsub
    glcd.o(i.LCD_Triangle_Up) refers to glcd.o(i.LCD_SetPoint) for LCD_SetPoint
    glcd.o(i.LCD_Triangle_Up) refers to cdcmple.o(.text) for __aeabi_cdcmple
    glcd.o(i.PutChar) refers to glcd.o(i.LCD_SetPoint) for LCD_SetPoint
    glcd.o(i.PutChar_Amplifier16) refers to glcd.o(i.LCD_SetPoint) for LCD_SetPoint
    glcd.o(i.PutChar_Amplifier4) refers to glcd.o(i.LCD_SetPoint) for LCD_SetPoint
    glcd.o(i.PutChinese) refers to glcd.o(i.LCD_SetPoint) for LCD_SetPoint
    glcd.o(i.PutChinese_Amplifier4) refers to glcd.o(i.LCD_SetPoint) for LCD_SetPoint
    glcd.o(i.SSD1963_GPIO_WR) refers to glcd.o(.data) for .data
    glcd.o(i.SSD1963_PowerUp) refers to stm32f10x_gpio.o(i.GPIO_SetBits) for GPIO_SetBits
    glcd.o(i.SSD1963_PowerUp) refers to glcd.o(i.delay_ms) for delay_ms
    glcd.o(i.SSD1963_PowerUp) refers to stm32f10x_gpio.o(i.GPIO_ResetBits) for GPIO_ResetBits
    glcd.o(i.SSD1963_SPI_Write) refers to glcd.o(i.SSD1963_GPIO_WR) for SSD1963_GPIO_WR
    glcd.o(i.SSD1963_SPI_WriteReg) refers to glcd.o(i.SSD1963_GPIO_WR) for SSD1963_GPIO_WR
    glcd.o(i.SSD1963_SPI_WriteReg) refers to glcd.o(i.SSD1963_SPI_Write) for SSD1963_SPI_Write
    ui.o(i.draw_arrow) refers to gl_ui.o(i.gl_fill_rect) for gl_fill_rect
    systick.o(i.delay_init) refers to stm32f10x_rcc.o(i.RCC_GetClocksFreq) for RCC_GetClocksFreq
    systick.o(i.delay_init) refers to misc.o(i.SysTick_CLKSourceConfig) for SysTick_CLKSourceConfig
    systick.o(i.delay_init) refers to stm32f10x_systick.o(i.SysTick_ITConfig) for SysTick_ITConfig
    systick.o(i.delay_init) refers to systick.o(.data) for .data
    systick.o(i.delay_ms) refers to stm32f10x_systick.o(i.SysTick_SetReload) for SysTick_SetReload
    systick.o(i.delay_ms) refers to stm32f10x_systick.o(i.SysTick_CounterCmd) for SysTick_CounterCmd
    systick.o(i.delay_ms) refers to stm32f10x_systick.o(i.SysTick_GetFlagStatus) for SysTick_GetFlagStatus
    systick.o(i.delay_ms) refers to systick.o(.data) for .data
    systick.o(i.delay_us) refers to stm32f10x_systick.o(i.SysTick_SetReload) for SysTick_SetReload
    systick.o(i.delay_us) refers to stm32f10x_systick.o(i.SysTick_CounterCmd) for SysTick_CounterCmd
    systick.o(i.delay_us) refers to stm32f10x_systick.o(i.SysTick_GetFlagStatus) for SysTick_GetFlagStatus
    systick.o(i.delay_us) refers to systick.o(.data) for .data
    touchpanel.o(i.DrawCross) refers to glcd.o(i.LCD_DrawLine) for LCD_DrawLine
    touchpanel.o(i.RD_AD) refers to stm32f10x_spi.o(i.SPI_I2S_GetFlagStatus) for SPI_I2S_GetFlagStatus
    touchpanel.o(i.RD_AD) refers to stm32f10x_spi.o(i.SPI_I2S_SendData) for SPI_I2S_SendData
    touchpanel.o(i.RD_AD) refers to stm32f10x_spi.o(i.SPI_I2S_ReceiveData) for SPI_I2S_ReceiveData
    touchpanel.o(i.RD_AD) refers to touchpanel.o(i.DelayUS) for DelayUS
    touchpanel.o(i.Read_Ads7846) refers to memseta.o(.text) for __aeabi_memclr4
    touchpanel.o(i.Read_Ads7846) refers to touchpanel.o(i.TP_GetAdXY) for TP_GetAdXY
    touchpanel.o(i.Read_Ads7846) refers to stm32f10x_gpio.o(i.GPIO_ReadInputDataBit) for GPIO_ReadInputDataBit
    touchpanel.o(i.Read_Ads7846) refers to touchpanel.o(.data) for .data
    touchpanel.o(i.Read_X) refers to stm32f10x_gpio.o(i.GPIO_ResetBits) for GPIO_ResetBits
    touchpanel.o(i.Read_X) refers to touchpanel.o(i.DelayUS) for DelayUS
    touchpanel.o(i.Read_X) refers to touchpanel.o(i.WR_CMD) for WR_CMD
    touchpanel.o(i.Read_X) refers to touchpanel.o(i.RD_AD) for RD_AD
    touchpanel.o(i.Read_X) refers to stm32f10x_gpio.o(i.GPIO_SetBits) for GPIO_SetBits
    touchpanel.o(i.Read_Y) refers to stm32f10x_gpio.o(i.GPIO_ResetBits) for GPIO_ResetBits
    touchpanel.o(i.Read_Y) refers to touchpanel.o(i.DelayUS) for DelayUS
    touchpanel.o(i.Read_Y) refers to touchpanel.o(i.WR_CMD) for WR_CMD
    touchpanel.o(i.Read_Y) refers to touchpanel.o(i.RD_AD) for RD_AD
    touchpanel.o(i.Read_Y) refers to stm32f10x_gpio.o(i.GPIO_SetBits) for GPIO_SetBits
    touchpanel.o(i.TP_DrawPoint) refers to glcd.o(i.LCD_SetPoint) for LCD_SetPoint
    touchpanel.o(i.TP_GetAdXY) refers to touchpanel.o(i.Read_X) for Read_X
    touchpanel.o(i.TP_GetAdXY) refers to touchpanel.o(i.DelayUS) for DelayUS
    touchpanel.o(i.TP_GetAdXY) refers to touchpanel.o(i.Read_Y) for Read_Y
    touchpanel.o(i.TP_Init) refers to stm32f10x_rcc.o(i.RCC_APB2PeriphClockCmd) for RCC_APB2PeriphClockCmd
    touchpanel.o(i.TP_Init) refers to stm32f10x_gpio.o(i.GPIO_Init) for GPIO_Init
    touchpanel.o(i.TP_Init) refers to stm32f10x_gpio.o(i.GPIO_SetBits) for GPIO_SetBits
    touchpanel.o(i.TP_Init) refers to stm32f10x_rcc.o(i.RCC_APB1PeriphClockCmd) for RCC_APB1PeriphClockCmd
    touchpanel.o(i.TP_Init) refers to stm32f10x_spi.o(i.SPI_Cmd) for SPI_Cmd
    touchpanel.o(i.TP_Init) refers to stm32f10x_spi.o(i.SPI_Init) for SPI_Init
    touchpanel.o(i.TouchPanel_Calibrate) refers to touchpanel.o(i.setCalibrationMatrix) for setCalibrationMatrix
    touchpanel.o(i.TouchPanel_Calibrate) refers to main.o(.data) for X
    touchpanel.o(i.TouchPanel_Calibrate) refers to touchpanel.o(.bss) for .bss
    touchpanel.o(i.TouchPanel_Calibrate) refers to main.o(.data) for Y
    touchpanel.o(i.TouchPanel_Calibrate) refers to touchpanel.o(.data) for .data
    touchpanel.o(i.WR_CMD) refers to stm32f10x_spi.o(i.SPI_I2S_GetFlagStatus) for SPI_I2S_GetFlagStatus
    touchpanel.o(i.WR_CMD) refers to stm32f10x_spi.o(i.SPI_I2S_SendData) for SPI_I2S_SendData
    touchpanel.o(i.WR_CMD) refers to stm32f10x_spi.o(i.SPI_I2S_ReceiveData) for SPI_I2S_ReceiveData
    touchpanel.o(i.getDisplayPoint) refers to cdcmple.o(.text) for __aeabi_cdcmpeq
    touchpanel.o(i.getDisplayPoint) refers to dfltui.o(.text) for __aeabi_ui2d
    touchpanel.o(i.getDisplayPoint) refers to dmul.o(.text) for __aeabi_dmul
    touchpanel.o(i.getDisplayPoint) refers to dadd.o(.text) for __aeabi_dadd
    touchpanel.o(i.getDisplayPoint) refers to ddiv.o(.text) for __aeabi_ddiv
    touchpanel.o(i.getDisplayPoint) refers to dfixui.o(.text) for __aeabi_d2uiz
    touchpanel.o(i.setCalibrationMatrix) refers to dflti.o(.text) for __aeabi_i2d
    touchpanel.o(i.setCalibrationMatrix) refers to cdcmple.o(.text) for __aeabi_cdcmpeq
    pow.o(i.__softfp_pow) refers (Special) to iusefp.o(.text) for __I$use$fp
    pow.o(i.__softfp_pow) refers to pow.o(i.pow) for pow
    pow.o(i.pow) refers (Special) to iusefp.o(.text) for __I$use$fp
    pow.o(i.pow) refers to dadd.o(.text) for __aeabi_dadd
    pow.o(i.pow) refers to errno.o(i.__set_errno) for __set_errno
    pow.o(i.pow) refers to ddiv.o(.text) for __aeabi_ddiv
    pow.o(i.pow) refers to dscalb.o(.text) for __ARM_scalbn
    pow.o(i.pow) refers to sqrt.o(i.sqrt) for sqrt
    pow.o(i.pow) refers to dmul.o(.text) for __aeabi_dmul
    pow.o(i.pow) refers to dunder.o(i.__mathlib_dbl_underflow) for __mathlib_dbl_underflow
    pow.o(i.pow) refers to qnan.o(.constdata) for __mathlib_zero
    pow.o(i.pow) refers to poly.o(i.__kernel_poly) for __kernel_poly
    pow.o(i.pow) refers to dflti.o(.text) for __aeabi_i2d
    pow.o(i.pow) refers to cdrcmple.o(.text) for __aeabi_cdrcmple
    pow.o(i.pow) refers to pow.o(.constdata) for .constdata
    pow.o(i.pow) refers to fpclassify.o(i.__ARM_fpclassify) for __ARM_fpclassify
    pow.o(.constdata) refers (Special) to iusefp.o(.text) for __I$use$fp
    pow_x.o(i.____softfp_pow$lsc) refers (Special) to iusefp.o(.text) for __I$use$fp
    pow_x.o(i.____softfp_pow$lsc) refers to pow_x.o(i.__pow$lsc) for __pow$lsc
    pow_x.o(i.__pow$lsc) refers (Special) to iusefp.o(.text) for __I$use$fp
    pow_x.o(i.__pow$lsc) refers to dadd.o(.text) for __aeabi_dadd
    pow_x.o(i.__pow$lsc) refers to errno.o(i.__set_errno) for __set_errno
    pow_x.o(i.__pow$lsc) refers to ddiv.o(.text) for __aeabi_ddiv
    pow_x.o(i.__pow$lsc) refers to sqrt.o(i.sqrt) for sqrt
    pow_x.o(i.__pow$lsc) refers to dmul.o(.text) for __aeabi_dmul
    pow_x.o(i.__pow$lsc) refers to dflti.o(.text) for __aeabi_i2d
    pow_x.o(i.__pow$lsc) refers to dscalb.o(.text) for __ARM_scalbn
    pow_x.o(i.__pow$lsc) refers to qnan.o(.constdata) for __mathlib_zero
    pow_x.o(i.__pow$lsc) refers to pow_x.o(.constdata) for .constdata
    pow_x.o(i.__pow$lsc) refers to poly.o(i.__kernel_poly) for __kernel_poly
    pow_x.o(i.__pow$lsc) refers to cdrcmple.o(.text) for __aeabi_cdrcmple
    pow_x.o(.constdata) refers (Special) to iusefp.o(.text) for __I$use$fp
    entry.o(.ARM.Collect$$$$00000000) refers (Special) to entry7b.o(.ARM.Collect$$$$00000008) for _main_clock
    entry.o(.ARM.Collect$$$$00000000) refers (Special) to entry8.o(.ARM.Collect$$$$00000009) for _main_init
    entry.o(.ARM.Collect$$$$00000000) refers (Special) to entry5.o(.ARM.Collect$$$$00000004) for _main_scatterload
    entry.o(.ARM.Collect$$$$00000000) refers (Special) to entry2.o(.ARM.Collect$$$$00000001) for _main_stk
    printfb.o(i.__0fprintf$bare) refers to printfb.o(i._printf_core) for _printf_core
    printfb.o(i.__0fprintf$bare) refers to usart.o(i.fputc) for fputc
    printfb.o(i.__0printf$bare) refers to printfb.o(i._printf_core) for _printf_core
    printfb.o(i.__0printf$bare) refers to usart.o(i.fputc) for fputc
    printfb.o(i.__0printf$bare) refers to stdout.o(.data) for __stdout
    printfb.o(i.__0snprintf$bare) refers to printfb.o(i._printf_core) for _printf_core
    printfb.o(i.__0snprintf$bare) refers to printfb.o(i._snputc) for _snputc
    printfb.o(i.__0sprintf$bare) refers to printfb.o(i._printf_core) for _printf_core
    printfb.o(i.__0sprintf$bare) refers to printfb.o(i._sputc) for _sputc
    printfb.o(i.__0vfprintf$bare) refers to printfb.o(i._printf_core) for _printf_core
    printfb.o(i.__0vfprintf$bare) refers to usart.o(i.fputc) for fputc
    printfb.o(i.__0vprintf$bare) refers to printfb.o(i._printf_core) for _printf_core
    printfb.o(i.__0vprintf$bare) refers to usart.o(i.fputc) for fputc
    printfb.o(i.__0vprintf$bare) refers to stdout.o(.data) for __stdout
    printfb.o(i.__0vsnprintf$bare) refers to printfb.o(i._printf_core) for _printf_core
    printfb.o(i.__0vsnprintf$bare) refers to printfb.o(i._snputc) for _snputc
    printfb.o(i.__0vsprintf$bare) refers to printfb.o(i._printf_core) for _printf_core
    printfb.o(i.__0vsprintf$bare) refers to printfb.o(i._sputc) for _sputc
    printf0.o(i.__0fprintf$0) refers to printf0.o(i._printf_core) for _printf_core
    printf0.o(i.__0fprintf$0) refers to usart.o(i.fputc) for fputc
    printf0.o(i.__0printf$0) refers to printf0.o(i._printf_core) for _printf_core
    printf0.o(i.__0printf$0) refers to usart.o(i.fputc) for fputc
    printf0.o(i.__0printf$0) refers to stdout.o(.data) for __stdout
    printf0.o(i.__0snprintf$0) refers to printf0.o(i._printf_core) for _printf_core
    printf0.o(i.__0snprintf$0) refers to printf0.o(i._snputc) for _snputc
    printf0.o(i.__0sprintf$0) refers to printf0.o(i._printf_core) for _printf_core
    printf0.o(i.__0sprintf$0) refers to printf0.o(i._sputc) for _sputc
    printf0.o(i.__0vfprintf$0) refers to printf0.o(i._printf_core) for _printf_core
    printf0.o(i.__0vfprintf$0) refers to usart.o(i.fputc) for fputc
    printf0.o(i.__0vprintf$0) refers to printf0.o(i._printf_core) for _printf_core
    printf0.o(i.__0vprintf$0) refers to usart.o(i.fputc) for fputc
    printf0.o(i.__0vprintf$0) refers to stdout.o(.data) for __stdout
    printf0.o(i.__0vsnprintf$0) refers to printf0.o(i._printf_core) for _printf_core
    printf0.o(i.__0vsnprintf$0) refers to printf0.o(i._snputc) for _snputc
    printf0.o(i.__0vsprintf$0) refers to printf0.o(i._printf_core) for _printf_core
    printf0.o(i.__0vsprintf$0) refers to printf0.o(i._sputc) for _sputc
    printf1.o(i.__0fprintf$1) refers to printf1.o(i._printf_core) for _printf_core
    printf1.o(i.__0fprintf$1) refers to usart.o(i.fputc) for fputc
    printf1.o(i.__0printf$1) refers to printf1.o(i._printf_core) for _printf_core
    printf1.o(i.__0printf$1) refers to usart.o(i.fputc) for fputc
    printf1.o(i.__0printf$1) refers to stdout.o(.data) for __stdout
    printf1.o(i.__0snprintf$1) refers to printf1.o(i._printf_core) for _printf_core
    printf1.o(i.__0snprintf$1) refers to printf1.o(i._snputc) for _snputc
    printf1.o(i.__0sprintf$1) refers to printf1.o(i._printf_core) for _printf_core
    printf1.o(i.__0sprintf$1) refers to printf1.o(i._sputc) for _sputc
    printf1.o(i.__0vfprintf$1) refers to printf1.o(i._printf_core) for _printf_core
    printf1.o(i.__0vfprintf$1) refers to usart.o(i.fputc) for fputc
    printf1.o(i.__0vprintf$1) refers to printf1.o(i._printf_core) for _printf_core
    printf1.o(i.__0vprintf$1) refers to usart.o(i.fputc) for fputc
    printf1.o(i.__0vprintf$1) refers to stdout.o(.data) for __stdout
    printf1.o(i.__0vsnprintf$1) refers to printf1.o(i._printf_core) for _printf_core
    printf1.o(i.__0vsnprintf$1) refers to printf1.o(i._snputc) for _snputc
    printf1.o(i.__0vsprintf$1) refers to printf1.o(i._printf_core) for _printf_core
    printf1.o(i.__0vsprintf$1) refers to printf1.o(i._sputc) for _sputc
    printf1.o(i._printf_core) refers to uidiv.o(.text) for __aeabi_uidivmod
    printf2.o(i.__0fprintf$2) refers to printf2.o(i._printf_core) for _printf_core
    printf2.o(i.__0fprintf$2) refers to usart.o(i.fputc) for fputc
    printf2.o(i.__0printf$2) refers to printf2.o(i._printf_core) for _printf_core
    printf2.o(i.__0printf$2) refers to usart.o(i.fputc) for fputc
    printf2.o(i.__0printf$2) refers to stdout.o(.data) for __stdout
    printf2.o(i.__0snprintf$2) refers to printf2.o(i._printf_core) for _printf_core
    printf2.o(i.__0snprintf$2) refers to printf2.o(i._snputc) for _snputc
    printf2.o(i.__0sprintf$2) refers to printf2.o(i._printf_core) for _printf_core
    printf2.o(i.__0sprintf$2) refers to printf2.o(i._sputc) for _sputc
    printf2.o(i.__0vfprintf$2) refers to printf2.o(i._printf_core) for _printf_core
    printf2.o(i.__0vfprintf$2) refers to usart.o(i.fputc) for fputc
    printf2.o(i.__0vprintf$2) refers to printf2.o(i._printf_core) for _printf_core
    printf2.o(i.__0vprintf$2) refers to usart.o(i.fputc) for fputc
    printf2.o(i.__0vprintf$2) refers to stdout.o(.data) for __stdout
    printf2.o(i.__0vsnprintf$2) refers to printf2.o(i._printf_core) for _printf_core
    printf2.o(i.__0vsnprintf$2) refers to printf2.o(i._snputc) for _snputc
    printf2.o(i.__0vsprintf$2) refers to printf2.o(i._printf_core) for _printf_core
    printf2.o(i.__0vsprintf$2) refers to printf2.o(i._sputc) for _sputc
    printf3.o(i.__0fprintf$3) refers to printf3.o(i._printf_core) for _printf_core
    printf3.o(i.__0fprintf$3) refers to usart.o(i.fputc) for fputc
    printf3.o(i.__0printf$3) refers to printf3.o(i._printf_core) for _printf_core
    printf3.o(i.__0printf$3) refers to usart.o(i.fputc) for fputc
    printf3.o(i.__0printf$3) refers to stdout.o(.data) for __stdout
    printf3.o(i.__0snprintf$3) refers to printf3.o(i._printf_core) for _printf_core
    printf3.o(i.__0snprintf$3) refers to printf3.o(i._snputc) for _snputc
    printf3.o(i.__0sprintf$3) refers to printf3.o(i._printf_core) for _printf_core
    printf3.o(i.__0sprintf$3) refers to printf3.o(i._sputc) for _sputc
    printf3.o(i.__0vfprintf$3) refers to printf3.o(i._printf_core) for _printf_core
    printf3.o(i.__0vfprintf$3) refers to usart.o(i.fputc) for fputc
    printf3.o(i.__0vprintf$3) refers to printf3.o(i._printf_core) for _printf_core
    printf3.o(i.__0vprintf$3) refers to usart.o(i.fputc) for fputc
    printf3.o(i.__0vprintf$3) refers to stdout.o(.data) for __stdout
    printf3.o(i.__0vsnprintf$3) refers to printf3.o(i._printf_core) for _printf_core
    printf3.o(i.__0vsnprintf$3) refers to printf3.o(i._snputc) for _snputc
    printf3.o(i.__0vsprintf$3) refers to printf3.o(i._printf_core) for _printf_core
    printf3.o(i.__0vsprintf$3) refers to printf3.o(i._sputc) for _sputc
    printf3.o(i._printf_core) refers to uidiv.o(.text) for __aeabi_uidivmod
    printf4.o(i.__0fprintf$4) refers to printf4.o(i._printf_core) for _printf_core
    printf4.o(i.__0fprintf$4) refers to usart.o(i.fputc) for fputc
    printf4.o(i.__0printf$4) refers to printf4.o(i._printf_core) for _printf_core
    printf4.o(i.__0printf$4) refers to usart.o(i.fputc) for fputc
    printf4.o(i.__0printf$4) refers to stdout.o(.data) for __stdout
    printf4.o(i.__0snprintf$4) refers to printf4.o(i._printf_core) for _printf_core
    printf4.o(i.__0snprintf$4) refers to printf4.o(i._snputc) for _snputc
    printf4.o(i.__0sprintf$4) refers to printf4.o(i._printf_core) for _printf_core
    printf4.o(i.__0sprintf$4) refers to printf4.o(i._sputc) for _sputc
    printf4.o(i.__0vfprintf$4) refers to printf4.o(i._printf_core) for _printf_core
    printf4.o(i.__0vfprintf$4) refers to usart.o(i.fputc) for fputc
    printf4.o(i.__0vprintf$4) refers to printf4.o(i._printf_core) for _printf_core
    printf4.o(i.__0vprintf$4) refers to usart.o(i.fputc) for fputc
    printf4.o(i.__0vprintf$4) refers to stdout.o(.data) for __stdout
    printf4.o(i.__0vsnprintf$4) refers to printf4.o(i._printf_core) for _printf_core
    printf4.o(i.__0vsnprintf$4) refers to printf4.o(i._snputc) for _snputc
    printf4.o(i.__0vsprintf$4) refers to printf4.o(i._printf_core) for _printf_core
    printf4.o(i.__0vsprintf$4) refers to printf4.o(i._sputc) for _sputc
    printf4.o(i._printf_core) refers to uldiv.o(.text) for __aeabi_uldivmod
    printf5.o(i.__0fprintf$5) refers to printf5.o(i._printf_core) for _printf_core
    printf5.o(i.__0fprintf$5) refers to usart.o(i.fputc) for fputc
    printf5.o(i.__0printf$5) refers to printf5.o(i._printf_core) for _printf_core
    printf5.o(i.__0printf$5) refers to usart.o(i.fputc) for fputc
    printf5.o(i.__0printf$5) refers to stdout.o(.data) for __stdout
    printf5.o(i.__0snprintf$5) refers to printf5.o(i._printf_core) for _printf_core
    printf5.o(i.__0snprintf$5) refers to printf5.o(i._snputc) for _snputc
    printf5.o(i.__0sprintf$5) refers to printf5.o(i._printf_core) for _printf_core
    printf5.o(i.__0sprintf$5) refers to printf5.o(i._sputc) for _sputc
    printf5.o(i.__0vfprintf$5) refers to printf5.o(i._printf_core) for _printf_core
    printf5.o(i.__0vfprintf$5) refers to usart.o(i.fputc) for fputc
    printf5.o(i.__0vprintf$5) refers to printf5.o(i._printf_core) for _printf_core
    printf5.o(i.__0vprintf$5) refers to usart.o(i.fputc) for fputc
    printf5.o(i.__0vprintf$5) refers to stdout.o(.data) for __stdout
    printf5.o(i.__0vsnprintf$5) refers to printf5.o(i._printf_core) for _printf_core
    printf5.o(i.__0vsnprintf$5) refers to printf5.o(i._snputc) for _snputc
    printf5.o(i.__0vsprintf$5) refers to printf5.o(i._printf_core) for _printf_core
    printf5.o(i.__0vsprintf$5) refers to printf5.o(i._sputc) for _sputc
    printf5.o(i._printf_core) refers to uldiv.o(.text) for __aeabi_uldivmod
    printf6.o(i.__0fprintf$6) refers to printf6.o(i._printf_core) for _printf_core
    printf6.o(i.__0fprintf$6) refers to usart.o(i.fputc) for fputc
    printf6.o(i.__0printf$6) refers to printf6.o(i._printf_core) for _printf_core
    printf6.o(i.__0printf$6) refers to usart.o(i.fputc) for fputc
    printf6.o(i.__0printf$6) refers to stdout.o(.data) for __stdout
    printf6.o(i.__0snprintf$6) refers to printf6.o(i._printf_core) for _printf_core
    printf6.o(i.__0snprintf$6) refers to printf6.o(i._snputc) for _snputc
    printf6.o(i.__0sprintf$6) refers to printf6.o(i._printf_core) for _printf_core
    printf6.o(i.__0sprintf$6) refers to printf6.o(i._sputc) for _sputc
    printf6.o(i.__0vfprintf$6) refers to printf6.o(i._printf_core) for _printf_core
    printf6.o(i.__0vfprintf$6) refers to usart.o(i.fputc) for fputc
    printf6.o(i.__0vprintf$6) refers to printf6.o(i._printf_core) for _printf_core
    printf6.o(i.__0vprintf$6) refers to usart.o(i.fputc) for fputc
    printf6.o(i.__0vprintf$6) refers to stdout.o(.data) for __stdout
    printf6.o(i.__0vsnprintf$6) refers to printf6.o(i._printf_core) for _printf_core
    printf6.o(i.__0vsnprintf$6) refers to printf6.o(i._snputc) for _snputc
    printf6.o(i.__0vsprintf$6) refers to printf6.o(i._printf_core) for _printf_core
    printf6.o(i.__0vsprintf$6) refers to printf6.o(i._sputc) for _sputc
    printf6.o(i._printf_core) refers to printf6.o(i._printf_pre_padding) for _printf_pre_padding
    printf6.o(i._printf_core) refers to uidiv.o(.text) for __aeabi_uidivmod
    printf6.o(i._printf_core) refers to printf6.o(i._printf_post_padding) for _printf_post_padding
    printf7.o(i.__0fprintf$7) refers to printf7.o(i._printf_core) for _printf_core
    printf7.o(i.__0fprintf$7) refers to usart.o(i.fputc) for fputc
    printf7.o(i.__0printf$7) refers to printf7.o(i._printf_core) for _printf_core
    printf7.o(i.__0printf$7) refers to usart.o(i.fputc) for fputc
    printf7.o(i.__0printf$7) refers to stdout.o(.data) for __stdout
    printf7.o(i.__0snprintf$7) refers to printf7.o(i._printf_core) for _printf_core
    printf7.o(i.__0snprintf$7) refers to printf7.o(i._snputc) for _snputc
    printf7.o(i.__0sprintf$7) refers to printf7.o(i._printf_core) for _printf_core
    printf7.o(i.__0sprintf$7) refers to printf7.o(i._sputc) for _sputc
    printf7.o(i.__0vfprintf$7) refers to printf7.o(i._printf_core) for _printf_core
    printf7.o(i.__0vfprintf$7) refers to usart.o(i.fputc) for fputc
    printf7.o(i.__0vprintf$7) refers to printf7.o(i._printf_core) for _printf_core
    printf7.o(i.__0vprintf$7) refers to usart.o(i.fputc) for fputc
    printf7.o(i.__0vprintf$7) refers to stdout.o(.data) for __stdout
    printf7.o(i.__0vsnprintf$7) refers to printf7.o(i._printf_core) for _printf_core
    printf7.o(i.__0vsnprintf$7) refers to printf7.o(i._snputc) for _snputc
    printf7.o(i.__0vsprintf$7) refers to printf7.o(i._printf_core) for _printf_core
    printf7.o(i.__0vsprintf$7) refers to printf7.o(i._sputc) for _sputc
    printf7.o(i._printf_core) refers to printf7.o(i._printf_pre_padding) for _printf_pre_padding
    printf7.o(i._printf_core) refers to uldiv.o(.text) for __aeabi_uldivmod
    printf7.o(i._printf_core) refers to printf7.o(i._printf_post_padding) for _printf_post_padding
    printf8.o(i.__0fprintf$8) refers to printf8.o(i._printf_core) for _printf_core
    printf8.o(i.__0fprintf$8) refers to usart.o(i.fputc) for fputc
    printf8.o(i.__0printf$8) refers to printf8.o(i._printf_core) for _printf_core
    printf8.o(i.__0printf$8) refers to usart.o(i.fputc) for fputc
    printf8.o(i.__0printf$8) refers to stdout.o(.data) for __stdout
    printf8.o(i.__0snprintf$8) refers to printf8.o(i._printf_core) for _printf_core
    printf8.o(i.__0snprintf$8) refers to printf8.o(i._snputc) for _snputc
    printf8.o(i.__0sprintf$8) refers to printf8.o(i._printf_core) for _printf_core
    printf8.o(i.__0sprintf$8) refers to printf8.o(i._sputc) for _sputc
    printf8.o(i.__0vfprintf$8) refers to printf8.o(i._printf_core) for _printf_core
    printf8.o(i.__0vfprintf$8) refers to usart.o(i.fputc) for fputc
    printf8.o(i.__0vprintf$8) refers to printf8.o(i._printf_core) for _printf_core
    printf8.o(i.__0vprintf$8) refers to usart.o(i.fputc) for fputc
    printf8.o(i.__0vprintf$8) refers to stdout.o(.data) for __stdout
    printf8.o(i.__0vsnprintf$8) refers to printf8.o(i._printf_core) for _printf_core
    printf8.o(i.__0vsnprintf$8) refers to printf8.o(i._snputc) for _snputc
    printf8.o(i.__0vsprintf$8) refers to printf8.o(i._printf_core) for _printf_core
    printf8.o(i.__0vsprintf$8) refers to printf8.o(i._sputc) for _sputc
    printf8.o(i._printf_core) refers to printf8.o(i._printf_pre_padding) for _printf_pre_padding
    printf8.o(i._printf_core) refers to uldiv.o(.text) for __aeabi_uldivmod
    printf8.o(i._printf_core) refers to printf8.o(i._printf_post_padding) for _printf_post_padding
    printfa.o(i.__0fprintf) refers (Special) to iusefp.o(.text) for __I$use$fp
    printfa.o(i.__0fprintf) refers to printfa.o(i._printf_core) for _printf_core
    printfa.o(i.__0fprintf) refers to usart.o(i.fputc) for fputc
    printfa.o(i.__0printf) refers (Special) to iusefp.o(.text) for __I$use$fp
    printfa.o(i.__0printf) refers to printfa.o(i._printf_core) for _printf_core
    printfa.o(i.__0printf) refers to usart.o(i.fputc) for fputc
    printfa.o(i.__0printf) refers to stdout.o(.data) for __stdout
    printfa.o(i.__0snprintf) refers (Special) to iusefp.o(.text) for __I$use$fp
    printfa.o(i.__0snprintf) refers to printfa.o(i._printf_core) for _printf_core
    printfa.o(i.__0snprintf) refers to printfa.o(i._snputc) for _snputc
    printfa.o(i.__0sprintf) refers (Special) to iusefp.o(.text) for __I$use$fp
    printfa.o(i.__0sprintf) refers to printfa.o(i._printf_core) for _printf_core
    printfa.o(i.__0sprintf) refers to printfa.o(i._sputc) for _sputc
    printfa.o(i.__0vfprintf) refers (Special) to iusefp.o(.text) for __I$use$fp
    printfa.o(i.__0vfprintf) refers to printfa.o(i._printf_core) for _printf_core
    printfa.o(i.__0vfprintf) refers to usart.o(i.fputc) for fputc
    printfa.o(i.__0vprintf) refers (Special) to iusefp.o(.text) for __I$use$fp
    printfa.o(i.__0vprintf) refers to printfa.o(i._printf_core) for _printf_core
    printfa.o(i.__0vprintf) refers to usart.o(i.fputc) for fputc
    printfa.o(i.__0vprintf) refers to stdout.o(.data) for __stdout
    printfa.o(i.__0vsnprintf) refers (Special) to iusefp.o(.text) for __I$use$fp
    printfa.o(i.__0vsnprintf) refers to printfa.o(i._printf_core) for _printf_core
    printfa.o(i.__0vsnprintf) refers to printfa.o(i._snputc) for _snputc
    printfa.o(i.__0vsprintf) refers (Special) to iusefp.o(.text) for __I$use$fp
    printfa.o(i.__0vsprintf) refers to printfa.o(i._printf_core) for _printf_core
    printfa.o(i.__0vsprintf) refers to printfa.o(i._sputc) for _sputc
    printfa.o(i._fp_digits) refers (Special) to iusefp.o(.text) for __I$use$fp
    printfa.o(i._fp_digits) refers to dmul.o(.text) for __aeabi_dmul
    printfa.o(i._fp_digits) refers to ddiv.o(.text) for __aeabi_ddiv
    printfa.o(i._fp_digits) refers to cdrcmple.o(.text) for __aeabi_cdrcmple
    printfa.o(i._fp_digits) refers to dadd.o(.text) for __aeabi_dadd
    printfa.o(i._fp_digits) refers to dfixul.o(.text) for __aeabi_d2ulz
    printfa.o(i._fp_digits) refers to uldiv.o(.text) for __aeabi_uldivmod
    printfa.o(i._printf_core) refers (Special) to iusefp.o(.text) for __I$use$fp
    printfa.o(i._printf_core) refers to printfa.o(i._printf_pre_padding) for _printf_pre_padding
    printfa.o(i._printf_core) refers to uldiv.o(.text) for __aeabi_uldivmod
    printfa.o(i._printf_core) refers to printfa.o(i._printf_post_padding) for _printf_post_padding
    printfa.o(i._printf_core) refers to printfa.o(i._fp_digits) for _fp_digits
    printfa.o(i._printf_core) refers to uidiv.o(.text) for __aeabi_uidivmod
    printfa.o(i._printf_post_padding) refers (Special) to iusefp.o(.text) for __I$use$fp
    printfa.o(i._printf_pre_padding) refers (Special) to iusefp.o(.text) for __I$use$fp
    printfa.o(i._snputc) refers (Special) to iusefp.o(.text) for __I$use$fp
    printfa.o(i._sputc) refers (Special) to iusefp.o(.text) for __I$use$fp
    atoi.o(.text) refers to errno.o(i.__aeabi_errno_addr) for __aeabi_errno_addr
    atoi.o(.text) refers to strtol.o(.text) for strtol
    fadd.o(.text) refers (Special) to iusefp.o(.text) for __I$use$fp
    fadd.o(.text) refers to fepilogue.o(.text) for _float_epilogue
    fmul.o(.text) refers (Special) to iusefp.o(.text) for __I$use$fp
    fdiv.o(.text) refers (Special) to iusefp.o(.text) for __I$use$fp
    fdiv.o(.text) refers to fepilogue.o(.text) for _float_round
    dadd.o(.text) refers (Special) to iusefp.o(.text) for __I$use$fp
    dadd.o(.text) refers to llshl.o(.text) for __aeabi_llsl
    dadd.o(.text) refers to llsshr.o(.text) for __aeabi_lasr
    dadd.o(.text) refers to depilogue.o(.text) for _double_epilogue
    dmul.o(.text) refers (Special) to iusefp.o(.text) for __I$use$fp
    dmul.o(.text) refers to depilogue.o(.text) for _double_epilogue
    ddiv.o(.text) refers (Special) to iusefp.o(.text) for __I$use$fp
    ddiv.o(.text) refers to depilogue.o(.text) for _double_round
    dscalb.o(.text) refers (Special) to iusefp.o(.text) for __I$use$fp
    fflti.o(.text) refers (Special) to iusefp.o(.text) for __I$use$fp
    fflti.o(.text) refers to fepilogue.o(.text) for _float_epilogue
    ffltui.o(.text) refers (Special) to iusefp.o(.text) for __I$use$fp
    ffltui.o(.text) refers to fepilogue.o(.text) for _float_epilogue
    dflti.o(.text) refers (Special) to iusefp.o(.text) for __I$use$fp
    dflti.o(.text) refers to depilogue.o(.text) for _double_epilogue
    dfltui.o(.text) refers (Special) to iusefp.o(.text) for __I$use$fp
    dfltui.o(.text) refers to depilogue.o(.text) for _double_epilogue
    ffixi.o(.text) refers (Special) to iusefp.o(.text) for __I$use$fp
    ffixui.o(.text) refers (Special) to iusefp.o(.text) for __I$use$fp
    dfixi.o(.text) refers (Special) to iusefp.o(.text) for __I$use$fp
    dfixi.o(.text) refers to llushr.o(.text) for __aeabi_llsr
    dfixui.o(.text) refers (Special) to iusefp.o(.text) for __I$use$fp
    dfixui.o(.text) refers to llushr.o(.text) for __aeabi_llsr
    f2d.o(.text) refers (Special) to iusefp.o(.text) for __I$use$fp
    cdcmple.o(.text) refers (Special) to iusefp.o(.text) for __I$use$fp
    d2f.o(.text) refers (Special) to iusefp.o(.text) for __I$use$fp
    d2f.o(.text) refers to fepilogue.o(.text) for _float_round
    dunder.o(i.__mathlib_dbl_underflow) refers to dscalb.o(.text) for __ARM_scalbn
    fpclassify.o(i.__ARM_fpclassify) refers (Special) to iusefp.o(.text) for __I$use$fp
    poly.o(i.__kernel_poly) refers (Special) to iusefp.o(.text) for __I$use$fp
    poly.o(i.__kernel_poly) refers to dmul.o(.text) for __aeabi_dmul
    poly.o(i.__kernel_poly) refers to dadd.o(.text) for __aeabi_dadd
    qnan.o(.constdata) refers (Special) to iusefp.o(.text) for __I$use$fp
    sqrt.o(i.__softfp_sqrt) refers (Special) to iusefp.o(.text) for __I$use$fp
    sqrt.o(i.__softfp_sqrt) refers to dsqrt.o(.text) for _dsqrt
    sqrt.o(i.__softfp_sqrt) refers to errno.o(i.__set_errno) for __set_errno
    sqrt.o(i.sqrt) refers (Special) to iusefp.o(.text) for __I$use$fp
    sqrt.o(i.sqrt) refers to dsqrt.o(.text) for _dsqrt
    sqrt.o(i.sqrt) refers to errno.o(i.__set_errno) for __set_errno
    sqrt_x.o(i.____softfp_sqrt$lsc) refers (Special) to iusefp.o(.text) for __I$use$fp
    sqrt_x.o(i.____softfp_sqrt$lsc) refers to cdcmple.o(.text) for __aeabi_cdcmple
    sqrt_x.o(i.____softfp_sqrt$lsc) refers to errno.o(i.__set_errno) for __set_errno
    sqrt_x.o(i.____softfp_sqrt$lsc) refers to dsqrt.o(.text) for _dsqrt
    sqrt_x.o(i.__sqrt$lsc) refers (Special) to iusefp.o(.text) for __I$use$fp
    sqrt_x.o(i.__sqrt$lsc) refers to cdcmple.o(.text) for __aeabi_cdcmple
    sqrt_x.o(i.__sqrt$lsc) refers to errno.o(i.__set_errno) for __set_errno
    sqrt_x.o(i.__sqrt$lsc) refers to dsqrt.o(.text) for _dsqrt
    entry2.o(.ARM.Collect$$$$00000001) refers to entry2.o(.ARM.Collect$$$$00002712) for __lit__00000000
    entry2.o(.ARM.Collect$$$$00002712) refers to startup_stm32f10x_hd.o(STACK) for __initial_sp
    entry2.o(__vectab_stack_and_reset_area) refers to startup_stm32f10x_hd.o(STACK) for __initial_sp
    entry2.o(__vectab_stack_and_reset_area) refers to entry.o(.ARM.Collect$$$$00000000) for __main
    entry5.o(.ARM.Collect$$$$00000004) refers to init.o(.text) for __scatterload
    entry8.o(.ARM.Collect$$$$00000009) refers to main.o(i.main) for main
    uldiv.o(.text) refers to llushr.o(.text) for __aeabi_llsr
    uldiv.o(.text) refers to llshl.o(.text) for __aeabi_llsl
    errno.o(i.__aeabi_errno_addr) refers to errno.o(.data) for .data
    errno.o(i.__read_errno) refers to errno.o(.data) for .data
    errno.o(i.__set_errno) refers to errno.o(.data) for .data
    strtol.o(.text) refers to ctype_o.o(.text) for __rt_ctype_table
    strtol.o(.text) refers to _strtoul.o(.text) for _strtoul
    strtol.o(.text) refers to errno.o(i.__aeabi_errno_addr) for __aeabi_errno_addr
    depilogue.o(.text) refers to llshl.o(.text) for __aeabi_llsl
    depilogue.o(.text) refers to llushr.o(.text) for __aeabi_llsr
    dfixul.o(.text) refers to llushr.o(.text) for __aeabi_llsr
    dfixul.o(.text) refers to llshl.o(.text) for __aeabi_llsl
    init.o(.text) refers to entry5.o(.ARM.Collect$$$$00000004) for __main_after_scatterload
    ctype_o.o(.text) refers to ctype_o.o(.constdata) for .constdata
    ctype_o.o(.constdata) refers to ctype_o.o(.constdata) for __ctype_table
    isalnum_o.o(.text) refers to ctype_o.o(.text) for __rt_ctype_table
    isalpha_o.o(.text) refers to ctype_o.o(.text) for __rt_ctype_table
    isblank_o.o(.text) refers to ctype_o.o(.constdata) for __ctype_table
    iscntrl_o.o(.text) refers to ctype_o.o(.text) for __rt_ctype_table
    isdigit_o.o(.text) refers to ctype_o.o(.text) for __rt_ctype_table
    isgraph_o.o(.text) refers to ctype_o.o(.text) for __rt_ctype_table
    islower_o.o(.text) refers to ctype_o.o(.text) for __rt_ctype_table
    isprint_o.o(.text) refers to ctype_o.o(.text) for __rt_ctype_table
    ispunct_o.o(.text) refers to ctype_o.o(.text) for __rt_ctype_table
    isspace_o.o(.text) refers to ctype_o.o(.text) for __rt_ctype_table
    isupper_o.o(.text) refers to ctype_o.o(.text) for __rt_ctype_table
    isxdigit_o.o(.text) refers to ctype_o.o(.text) for __rt_ctype_table
    _strtoul.o(.text) refers to _chval.o(.text) for _chval
    _strtoul.o(.text) refers to errno.o(i.__aeabi_errno_addr) for __aeabi_errno_addr
    dsqrt.o(.text) refers to llushr.o(.text) for __aeabi_llsr
    dsqrt.o(.text) refers to depilogue.o(.text) for _double_round


==============================================================================

Removing Unused input sections from the image.

    Removing picturedata.o(.data), (58 bytes).
    Removing picturedata.o(.data), (58 bytes).
    Removing gl_ui.o(i.gl_bmp), (152 bytes).
    Removing gl_ui.o(i.gl_rect), (66 bytes).
    Removing gl_ui.o(i.gl_ui_hook), (12 bytes).
    Removing flash.o(i.CoverFlash), (60 bytes).
    Removing flash.o(.bss), (2048 bytes).
    Removing main.o(i.ADC2Configuration), (2 bytes).
    Removing main.o(i.DbmToScale), (196 bytes).
    Removing main.o(i.DebugLookAD), (248 bytes).
    Removing main.o(i.Delay), (10 bytes).
    Removing main.o(i.External_Interrupt_Config), (2 bytes).
    Removing main.o(i.External_Interrupt_EXIT_Init), (2 bytes).
    Removing main.o(i.External_Interrupt_InterruptConfig), (142 bytes).
    Removing main.o(i.RedLightIOConfig), (44 bytes).
    Removing main.o(i.delayMs), (2 bytes).
    Removing main.o(i.delayUs), (2 bytes).
    Removing main.o(.data), (1 bytes).
    Removing main.o(.data), (40 bytes).
    Removing gl_key.o(i.getkeymsg), (2 bytes).
    Removing gl_key.o(i.gl_key_down), (28 bytes).
    Removing gl_key.o(i.gl_key_init), (208 bytes).
    Removing gl_key.o(i.gl_key_scan), (204 bytes).
    Removing gl_key.o(.bss), (100 bytes).
    Removing gl_key.o(.data), (1 bytes).
    Removing usart.o(i.CommClear), (2 bytes).
    Removing usart.o(i.CommCopyToBuf), (86 bytes).
    Removing usart.o(i.CommCopyToUser), (104 bytes).
    Removing usart.o(i.CommDMAStop), (52 bytes).
    Removing usart.o(i.CommRead), (188 bytes).
    Removing usart.o(i.CommSend), (88 bytes).
    Removing ts100_draw.o(i.GUI_Text_Show_Number), (2 bytes).
    Removing ts100_draw.o(i.LCD_Menu_Select), (2 bytes).
    Removing ts100_draw.o(i.LCD_Wavelength_Selection), (2 bytes).
    Removing stm32f10x_rcc.o(i.RCC_ADCCLKConfig), (20 bytes).
    Removing stm32f10x_rcc.o(i.RCC_APB1PeriphResetCmd), (24 bytes).
    Removing stm32f10x_rcc.o(i.RCC_APB2PeriphResetCmd), (24 bytes).
    Removing stm32f10x_rcc.o(i.RCC_AdjustHSICalibrationValue), (20 bytes).
    Removing stm32f10x_rcc.o(i.RCC_BackupResetCmd), (12 bytes).
    Removing stm32f10x_rcc.o(i.RCC_ClearFlag), (16 bytes).
    Removing stm32f10x_rcc.o(i.RCC_ClearITPendingBit), (12 bytes).
    Removing stm32f10x_rcc.o(i.RCC_ClockSecuritySystemCmd), (12 bytes).
    Removing stm32f10x_rcc.o(i.RCC_DeInit), (64 bytes).
    Removing stm32f10x_rcc.o(i.RCC_GetFlagStatus), (48 bytes).
    Removing stm32f10x_rcc.o(i.RCC_GetITStatus), (20 bytes).
    Removing stm32f10x_rcc.o(i.RCC_GetSYSCLKSource), (16 bytes).
    Removing stm32f10x_rcc.o(i.RCC_HCLKConfig), (20 bytes).
    Removing stm32f10x_rcc.o(i.RCC_HSEConfig), (52 bytes).
    Removing stm32f10x_rcc.o(i.RCC_HSICmd), (12 bytes).
    Removing stm32f10x_rcc.o(i.RCC_ITConfig), (24 bytes).
    Removing stm32f10x_rcc.o(i.RCC_LSEConfig), (32 bytes).
    Removing stm32f10x_rcc.o(i.RCC_LSICmd), (12 bytes).
    Removing stm32f10x_rcc.o(i.RCC_MCOConfig), (12 bytes).
    Removing stm32f10x_rcc.o(i.RCC_PCLK1Config), (20 bytes).
    Removing stm32f10x_rcc.o(i.RCC_PCLK2Config), (20 bytes).
    Removing stm32f10x_rcc.o(i.RCC_PLLCmd), (12 bytes).
    Removing stm32f10x_rcc.o(i.RCC_PLLConfig), (20 bytes).
    Removing stm32f10x_rcc.o(i.RCC_RTCCLKCmd), (12 bytes).
    Removing stm32f10x_rcc.o(i.RCC_RTCCLKConfig), (16 bytes).
    Removing stm32f10x_rcc.o(i.RCC_SYSCLKConfig), (20 bytes).
    Removing stm32f10x_rcc.o(i.RCC_USBCLKConfig), (12 bytes).
    Removing stm32f10x_rcc.o(i.RCC_WaitForHSEStartUp), (38 bytes).
    Removing stm32f10x_gpio.o(i.GPIO_AFIODeInit), (22 bytes).
    Removing stm32f10x_gpio.o(i.GPIO_DeInit), (180 bytes).
    Removing stm32f10x_gpio.o(i.GPIO_ETH_MediaInterfaceConfig), (12 bytes).
    Removing stm32f10x_gpio.o(i.GPIO_EXTILineConfig), (40 bytes).
    Removing stm32f10x_gpio.o(i.GPIO_EventOutputCmd), (12 bytes).
    Removing stm32f10x_gpio.o(i.GPIO_EventOutputConfig), (28 bytes).
    Removing stm32f10x_gpio.o(i.GPIO_PinLockConfig), (16 bytes).
    Removing stm32f10x_gpio.o(i.GPIO_ReadInputData), (6 bytes).
    Removing stm32f10x_gpio.o(i.GPIO_ReadOutputData), (6 bytes).
    Removing stm32f10x_gpio.o(i.GPIO_ReadOutputDataBit), (14 bytes).
    Removing stm32f10x_gpio.o(i.GPIO_StructInit), (16 bytes).
    Removing stm32f10x_gpio.o(i.GPIO_Write), (4 bytes).
    Removing stm32f10x_gpio.o(i.GPIO_WriteBit), (10 bytes).
    Removing misc.o(i.NVIC_SystemLPConfig), (24 bytes).
    Removing stm32f10x_exti.o(i.EXTI_ClearFlag), (12 bytes).
    Removing stm32f10x_exti.o(i.EXTI_DeInit), (36 bytes).
    Removing stm32f10x_exti.o(i.EXTI_GenerateSWInterrupt), (16 bytes).
    Removing stm32f10x_exti.o(i.EXTI_GetFlagStatus), (20 bytes).
    Removing stm32f10x_exti.o(i.EXTI_Init), (112 bytes).
    Removing stm32f10x_exti.o(i.EXTI_StructInit), (14 bytes).
    Removing stm32f10x_spi.o(i.I2S_Cmd), (20 bytes).
    Removing stm32f10x_spi.o(i.I2S_Init), (146 bytes).
    Removing stm32f10x_spi.o(i.I2S_StructInit), (18 bytes).
    Removing stm32f10x_spi.o(i.SPI_BiDirectionalLineConfig), (22 bytes).
    Removing stm32f10x_spi.o(i.SPI_CalculateCRC), (20 bytes).
    Removing stm32f10x_spi.o(i.SPI_Cmd), (20 bytes).
    Removing stm32f10x_spi.o(i.SPI_DataSizeConfig), (16 bytes).
    Removing stm32f10x_spi.o(i.SPI_GetCRC), (12 bytes).
    Removing stm32f10x_spi.o(i.SPI_GetCRCPolynomial), (4 bytes).
    Removing stm32f10x_spi.o(i.SPI_I2S_ClearFlag), (6 bytes).
    Removing stm32f10x_spi.o(i.SPI_I2S_ClearITPendingBit), (14 bytes).
    Removing stm32f10x_spi.o(i.SPI_I2S_DMACmd), (16 bytes).
    Removing stm32f10x_spi.o(i.SPI_I2S_DeInit), (84 bytes).
    Removing stm32f10x_spi.o(i.SPI_I2S_GetFlagStatus), (14 bytes).
    Removing stm32f10x_spi.o(i.SPI_I2S_GetITStatus), (40 bytes).
    Removing stm32f10x_spi.o(i.SPI_I2S_ITConfig), (24 bytes).
    Removing stm32f10x_spi.o(i.SPI_I2S_ReceiveData), (4 bytes).
    Removing stm32f10x_spi.o(i.SPI_I2S_SendData), (4 bytes).
    Removing stm32f10x_spi.o(i.SPI_Init), (56 bytes).
    Removing stm32f10x_spi.o(i.SPI_NSSInternalSoftwareConfig), (24 bytes).
    Removing stm32f10x_spi.o(i.SPI_SSOutputCmd), (20 bytes).
    Removing stm32f10x_spi.o(i.SPI_StructInit), (24 bytes).
    Removing stm32f10x_spi.o(i.SPI_TransmitCRC), (10 bytes).
    Removing stm32f10x_fsmc.o(i.FSMC_ClearFlag), (42 bytes).
    Removing stm32f10x_fsmc.o(i.FSMC_ClearITPendingBit), (44 bytes).
    Removing stm32f10x_fsmc.o(i.FSMC_GetECC), (18 bytes).
    Removing stm32f10x_fsmc.o(i.FSMC_GetFlagStatus), (40 bytes).
    Removing stm32f10x_fsmc.o(i.FSMC_GetITStatus), (48 bytes).
    Removing stm32f10x_fsmc.o(i.FSMC_ITConfig), (80 bytes).
    Removing stm32f10x_fsmc.o(i.FSMC_NANDCmd), (56 bytes).
    Removing stm32f10x_fsmc.o(i.FSMC_NANDDeInit), (40 bytes).
    Removing stm32f10x_fsmc.o(i.FSMC_NANDECCCmd), (56 bytes).
    Removing stm32f10x_fsmc.o(i.FSMC_NANDInit), (104 bytes).
    Removing stm32f10x_fsmc.o(i.FSMC_NANDStructInit), (54 bytes).
    Removing stm32f10x_fsmc.o(i.FSMC_NORSRAMDeInit), (36 bytes).
    Removing stm32f10x_fsmc.o(i.FSMC_NORSRAMStructInit), (98 bytes).
    Removing stm32f10x_fsmc.o(i.FSMC_PCCARDCmd), (32 bytes).
    Removing stm32f10x_fsmc.o(i.FSMC_PCCARDDeInit), (28 bytes).
    Removing stm32f10x_fsmc.o(i.FSMC_PCCARDInit), (116 bytes).
    Removing stm32f10x_fsmc.o(i.FSMC_PCCARDStructInit), (60 bytes).
    Removing stm32f10x_usart.o(i.USART_ClearFlag), (6 bytes).
    Removing stm32f10x_usart.o(i.USART_ClearITPendingBit), (12 bytes).
    Removing stm32f10x_usart.o(i.USART_ClockInit), (30 bytes).
    Removing stm32f10x_usart.o(i.USART_ClockStructInit), (12 bytes).
    Removing stm32f10x_usart.o(i.USART_DeInit), (116 bytes).
    Removing stm32f10x_usart.o(i.USART_GetITStatus), (62 bytes).
    Removing stm32f10x_usart.o(i.USART_HalfDuplexCmd), (20 bytes).
    Removing stm32f10x_usart.o(i.USART_ITConfig), (48 bytes).
    Removing stm32f10x_usart.o(i.USART_IrDACmd), (20 bytes).
    Removing stm32f10x_usart.o(i.USART_IrDAConfig), (16 bytes).
    Removing stm32f10x_usart.o(i.USART_LINBreakDetectLengthConfig), (16 bytes).
    Removing stm32f10x_usart.o(i.USART_LINCmd), (20 bytes).
    Removing stm32f10x_usart.o(i.USART_OneBitMethodCmd), (20 bytes).
    Removing stm32f10x_usart.o(i.USART_OverSampling8Cmd), (20 bytes).
    Removing stm32f10x_usart.o(i.USART_ReceiveData), (8 bytes).
    Removing stm32f10x_usart.o(i.USART_ReceiverWakeUpCmd), (20 bytes).
    Removing stm32f10x_usart.o(i.USART_SendBreak), (10 bytes).
    Removing stm32f10x_usart.o(i.USART_SetAddress), (16 bytes).
    Removing stm32f10x_usart.o(i.USART_SetGuardTime), (16 bytes).
    Removing stm32f10x_usart.o(i.USART_SetPrescaler), (16 bytes).
    Removing stm32f10x_usart.o(i.USART_SmartCardCmd), (20 bytes).
    Removing stm32f10x_usart.o(i.USART_SmartCardNACKCmd), (20 bytes).
    Removing stm32f10x_usart.o(i.USART_StructInit), (22 bytes).
    Removing stm32f10x_usart.o(i.USART_WakeUpConfig), (16 bytes).
    Removing stm32f10x_sdio.o(i.SDIO_CEATAITCmd), (16 bytes).
    Removing stm32f10x_sdio.o(i.SDIO_ClearFlag), (12 bytes).
    Removing stm32f10x_sdio.o(i.SDIO_ClearITPendingBit), (12 bytes).
    Removing stm32f10x_sdio.o(i.SDIO_ClockCmd), (12 bytes).
    Removing stm32f10x_sdio.o(i.SDIO_CmdStructInit), (14 bytes).
    Removing stm32f10x_sdio.o(i.SDIO_CommandCompletionCmd), (12 bytes).
    Removing stm32f10x_sdio.o(i.SDIO_DMACmd), (12 bytes).
    Removing stm32f10x_sdio.o(i.SDIO_DataConfig), (44 bytes).
    Removing stm32f10x_sdio.o(i.SDIO_DataStructInit), (20 bytes).
    Removing stm32f10x_sdio.o(i.SDIO_DeInit), (36 bytes).
    Removing stm32f10x_sdio.o(i.SDIO_GetCommandResponse), (12 bytes).
    Removing stm32f10x_sdio.o(i.SDIO_GetDataCounter), (12 bytes).
    Removing stm32f10x_sdio.o(i.SDIO_GetFIFOCount), (12 bytes).
    Removing stm32f10x_sdio.o(i.SDIO_GetFlagStatus), (20 bytes).
    Removing stm32f10x_sdio.o(i.SDIO_GetITStatus), (20 bytes).
    Removing stm32f10x_sdio.o(i.SDIO_GetPowerState), (16 bytes).
    Removing stm32f10x_sdio.o(i.SDIO_GetResponse), (12 bytes).
    Removing stm32f10x_sdio.o(i.SDIO_ITConfig), (24 bytes).
    Removing stm32f10x_sdio.o(i.SDIO_Init), (44 bytes).
    Removing stm32f10x_sdio.o(i.SDIO_ReadData), (12 bytes).
    Removing stm32f10x_sdio.o(i.SDIO_SendCEATACmd), (12 bytes).
    Removing stm32f10x_sdio.o(i.SDIO_SendCommand), (40 bytes).
    Removing stm32f10x_sdio.o(i.SDIO_SendSDIOSuspendCmd), (12 bytes).
    Removing stm32f10x_sdio.o(i.SDIO_SetPowerState), (24 bytes).
    Removing stm32f10x_sdio.o(i.SDIO_SetSDIOOperation), (12 bytes).
    Removing stm32f10x_sdio.o(i.SDIO_SetSDIOReadWaitMode), (12 bytes).
    Removing stm32f10x_sdio.o(i.SDIO_StartSDIOReadWait), (12 bytes).
    Removing stm32f10x_sdio.o(i.SDIO_StopSDIOReadWait), (12 bytes).
    Removing stm32f10x_sdio.o(i.SDIO_StructInit), (16 bytes).
    Removing stm32f10x_sdio.o(i.SDIO_WriteData), (12 bytes).
    Removing stm32f10x_dma.o(i.DMA_GetCurrDataCounter), (6 bytes).
    Removing stm32f10x_dma.o(i.DMA_SetCurrDataCounter), (4 bytes).
    Removing stm32f10x_dma.o(i.DMA_StructInit), (26 bytes).
    Removing stm32f10x_i2c.o(i.I2C_ARPCmd), (20 bytes).
    Removing stm32f10x_i2c.o(i.I2C_AcknowledgeConfig), (20 bytes).
    Removing stm32f10x_i2c.o(i.I2C_CalculatePEC), (20 bytes).
    Removing stm32f10x_i2c.o(i.I2C_CheckEvent), (24 bytes).
    Removing stm32f10x_i2c.o(i.I2C_ClearFlag), (6 bytes).
    Removing stm32f10x_i2c.o(i.I2C_ClearITPendingBit), (6 bytes).
    Removing stm32f10x_i2c.o(i.I2C_Cmd), (20 bytes).
    Removing stm32f10x_i2c.o(i.I2C_DMACmd), (20 bytes).
    Removing stm32f10x_i2c.o(i.I2C_DMALastTransferCmd), (20 bytes).
    Removing stm32f10x_i2c.o(i.I2C_DeInit), (44 bytes).
    Removing stm32f10x_i2c.o(i.I2C_DualAddressCmd), (20 bytes).
    Removing stm32f10x_i2c.o(i.I2C_FastModeDutyCycleConfig), (22 bytes).
    Removing stm32f10x_i2c.o(i.I2C_GeneralCallCmd), (20 bytes).
    Removing stm32f10x_i2c.o(i.I2C_GenerateSTART), (20 bytes).
    Removing stm32f10x_i2c.o(i.I2C_GenerateSTOP), (20 bytes).
    Removing stm32f10x_i2c.o(i.I2C_GetFlagStatus), (30 bytes).
    Removing stm32f10x_i2c.o(i.I2C_GetITStatus), (32 bytes).
    Removing stm32f10x_i2c.o(i.I2C_GetLastEvent), (14 bytes).
    Removing stm32f10x_i2c.o(i.I2C_GetPEC), (6 bytes).
    Removing stm32f10x_i2c.o(i.I2C_ITConfig), (16 bytes).
    Removing stm32f10x_i2c.o(i.I2C_Init), (184 bytes).
    Removing stm32f10x_i2c.o(i.I2C_OwnAddress2Config), (16 bytes).
    Removing stm32f10x_i2c.o(i.I2C_PECPositionConfig), (22 bytes).
    Removing stm32f10x_i2c.o(i.I2C_ReadRegister), (4 bytes).
    Removing stm32f10x_i2c.o(i.I2C_ReceiveData), (6 bytes).
    Removing stm32f10x_i2c.o(i.I2C_SMBusAlertConfig), (22 bytes).
    Removing stm32f10x_i2c.o(i.I2C_Send7bitAddress), (16 bytes).
    Removing stm32f10x_i2c.o(i.I2C_SendData), (4 bytes).
    Removing stm32f10x_i2c.o(i.I2C_SoftwareResetCmd), (20 bytes).
    Removing stm32f10x_i2c.o(i.I2C_StretchClockCmd), (20 bytes).
    Removing stm32f10x_i2c.o(i.I2C_StructInit), (28 bytes).
    Removing stm32f10x_i2c.o(i.I2C_TransmitPEC), (20 bytes).
    Removing stm32f10x_tim.o(i.TI1_Config), (104 bytes).
    Removing stm32f10x_tim.o(i.TI2_Config), (120 bytes).
    Removing stm32f10x_tim.o(i.TIM_ARRPreloadConfig), (20 bytes).
    Removing stm32f10x_tim.o(i.TIM_BDTRConfig), (34 bytes).
    Removing stm32f10x_tim.o(i.TIM_BDTRStructInit), (18 bytes).
    Removing stm32f10x_tim.o(i.TIM_CCPreloadControl), (20 bytes).
    Removing stm32f10x_tim.o(i.TIM_CCxCmd), (22 bytes).
    Removing stm32f10x_tim.o(i.TIM_CCxNCmd), (22 bytes).
    Removing stm32f10x_tim.o(i.TIM_ClearFlag), (6 bytes).
    Removing stm32f10x_tim.o(i.TIM_ClearOC1Ref), (12 bytes).
    Removing stm32f10x_tim.o(i.TIM_ClearOC2Ref), (14 bytes).
    Removing stm32f10x_tim.o(i.TIM_ClearOC3Ref), (12 bytes).
    Removing stm32f10x_tim.o(i.TIM_ClearOC4Ref), (14 bytes).
    Removing stm32f10x_tim.o(i.TIM_CounterModeConfig), (12 bytes).
    Removing stm32f10x_tim.o(i.TIM_CtrlPWMOutputs), (22 bytes).
    Removing stm32f10x_tim.o(i.TIM_DMACmd), (16 bytes).
    Removing stm32f10x_tim.o(i.TIM_DMAConfig), (8 bytes).
    Removing stm32f10x_tim.o(i.TIM_DeInit), (368 bytes).
    Removing stm32f10x_tim.o(i.TIM_ETRClockMode1Config), (18 bytes).
    Removing stm32f10x_tim.o(i.TIM_ETRClockMode2Config), (18 bytes).
    Removing stm32f10x_tim.o(i.TIM_ETRConfig), (18 bytes).
    Removing stm32f10x_tim.o(i.TIM_EncoderInterfaceConfig), (44 bytes).
    Removing stm32f10x_tim.o(i.TIM_ForcedOC1Config), (12 bytes).
    Removing stm32f10x_tim.o(i.TIM_ForcedOC2Config), (14 bytes).
    Removing stm32f10x_tim.o(i.TIM_ForcedOC3Config), (12 bytes).
    Removing stm32f10x_tim.o(i.TIM_ForcedOC4Config), (14 bytes).
    Removing stm32f10x_tim.o(i.TIM_GenerateEvent), (4 bytes).
    Removing stm32f10x_tim.o(i.TIM_GetCapture1), (4 bytes).
    Removing stm32f10x_tim.o(i.TIM_GetCapture2), (4 bytes).
    Removing stm32f10x_tim.o(i.TIM_GetCapture3), (4 bytes).
    Removing stm32f10x_tim.o(i.TIM_GetCapture4), (6 bytes).
    Removing stm32f10x_tim.o(i.TIM_GetCounter), (4 bytes).
    Removing stm32f10x_tim.o(i.TIM_GetFlagStatus), (14 bytes).
    Removing stm32f10x_tim.o(i.TIM_GetPrescaler), (4 bytes).
    Removing stm32f10x_tim.o(i.TIM_ICInit), (292 bytes).
    Removing stm32f10x_tim.o(i.TIM_ICStructInit), (16 bytes).
    Removing stm32f10x_tim.o(i.TIM_ITRxExternalClockConfig), (18 bytes).
    Removing stm32f10x_tim.o(i.TIM_InternalClockConfig), (10 bytes).
    Removing stm32f10x_tim.o(i.TIM_OC1FastConfig), (12 bytes).
    Removing stm32f10x_tim.o(i.TIM_OC1Init), (128 bytes).
    Removing stm32f10x_tim.o(i.TIM_OC1NPolarityConfig), (12 bytes).
    Removing stm32f10x_tim.o(i.TIM_OC1PolarityConfig), (12 bytes).
    Removing stm32f10x_tim.o(i.TIM_OC1PreloadConfig), (12 bytes).
    Removing stm32f10x_tim.o(i.TIM_OC2FastConfig), (14 bytes).
    Removing stm32f10x_tim.o(i.TIM_OC2Init), (124 bytes).
    Removing stm32f10x_tim.o(i.TIM_OC2NPolarityConfig), (14 bytes).
    Removing stm32f10x_tim.o(i.TIM_OC2PolarityConfig), (14 bytes).
    Removing stm32f10x_tim.o(i.TIM_OC2PreloadConfig), (14 bytes).
    Removing stm32f10x_tim.o(i.TIM_OC3FastConfig), (12 bytes).
    Removing stm32f10x_tim.o(i.TIM_OC3Init), (120 bytes).
    Removing stm32f10x_tim.o(i.TIM_OC3NPolarityConfig), (14 bytes).
    Removing stm32f10x_tim.o(i.TIM_OC3PolarityConfig), (14 bytes).
    Removing stm32f10x_tim.o(i.TIM_OC3PreloadConfig), (12 bytes).
    Removing stm32f10x_tim.o(i.TIM_OC4FastConfig), (14 bytes).
    Removing stm32f10x_tim.o(i.TIM_OC4Init), (96 bytes).
    Removing stm32f10x_tim.o(i.TIM_OC4PolarityConfig), (14 bytes).
    Removing stm32f10x_tim.o(i.TIM_OC4PreloadConfig), (14 bytes).
    Removing stm32f10x_tim.o(i.TIM_OCStructInit), (20 bytes).
    Removing stm32f10x_tim.o(i.TIM_PWMIConfig), (108 bytes).
    Removing stm32f10x_tim.o(i.TIM_PrescalerConfig), (6 bytes).
    Removing stm32f10x_tim.o(i.TIM_SelectCCDMA), (20 bytes).
    Removing stm32f10x_tim.o(i.TIM_SelectCOM), (20 bytes).
    Removing stm32f10x_tim.o(i.TIM_SelectHallSensor), (20 bytes).
    Removing stm32f10x_tim.o(i.TIM_SelectInputTrigger), (12 bytes).
    Removing stm32f10x_tim.o(i.TIM_SelectMasterSlaveMode), (16 bytes).
    Removing stm32f10x_tim.o(i.TIM_SelectOCxM), (66 bytes).
    Removing stm32f10x_tim.o(i.TIM_SelectOnePulseMode), (16 bytes).
    Removing stm32f10x_tim.o(i.TIM_SelectOutputTrigger), (16 bytes).
    Removing stm32f10x_tim.o(i.TIM_SelectSlaveMode), (16 bytes).
    Removing stm32f10x_tim.o(i.TIM_SetAutoreload), (4 bytes).
    Removing stm32f10x_tim.o(i.TIM_SetClockDivision), (16 bytes).
    Removing stm32f10x_tim.o(i.TIM_SetCompare1), (4 bytes).
    Removing stm32f10x_tim.o(i.TIM_SetCompare2), (4 bytes).
    Removing stm32f10x_tim.o(i.TIM_SetCompare3), (4 bytes).
    Removing stm32f10x_tim.o(i.TIM_SetCompare4), (6 bytes).
    Removing stm32f10x_tim.o(i.TIM_SetCounter), (4 bytes).
    Removing stm32f10x_tim.o(i.TIM_SetIC1Prescaler), (16 bytes).
    Removing stm32f10x_tim.o(i.TIM_SetIC2Prescaler), (18 bytes).
    Removing stm32f10x_tim.o(i.TIM_SetIC3Prescaler), (16 bytes).
    Removing stm32f10x_tim.o(i.TIM_SetIC4Prescaler), (18 bytes).
    Removing stm32f10x_tim.o(i.TIM_TIxExternalClockConfig), (44 bytes).
    Removing stm32f10x_tim.o(i.TIM_TimeBaseStructInit), (18 bytes).
    Removing stm32f10x_tim.o(i.TIM_UpdateDisableConfig), (20 bytes).
    Removing stm32f10x_tim.o(i.TIM_UpdateRequestConfig), (20 bytes).
    Removing stm32f10x_adc.o(i.ADC_AnalogWatchdogCmd), (16 bytes).
    Removing stm32f10x_adc.o(i.ADC_AnalogWatchdogSingleChannelConfig), (12 bytes).
    Removing stm32f10x_adc.o(i.ADC_AnalogWatchdogThresholdsConfig), (6 bytes).
    Removing stm32f10x_adc.o(i.ADC_AutoInjectedConvCmd), (20 bytes).
    Removing stm32f10x_adc.o(i.ADC_ClearFlag), (6 bytes).
    Removing stm32f10x_adc.o(i.ADC_ClearITPendingBit), (8 bytes).
    Removing stm32f10x_adc.o(i.ADC_DeInit), (68 bytes).
    Removing stm32f10x_adc.o(i.ADC_DiscModeChannelCountConfig), (16 bytes).
    Removing stm32f10x_adc.o(i.ADC_DiscModeCmd), (20 bytes).
    Removing stm32f10x_adc.o(i.ADC_ExternalTrigConvCmd), (20 bytes).
    Removing stm32f10x_adc.o(i.ADC_ExternalTrigInjectedConvCmd), (20 bytes).
    Removing stm32f10x_adc.o(i.ADC_ExternalTrigInjectedConvConfig), (12 bytes).
    Removing stm32f10x_adc.o(i.ADC_GetConversionValue), (6 bytes).
    Removing stm32f10x_adc.o(i.ADC_GetDualModeConversionValue), (12 bytes).
    Removing stm32f10x_adc.o(i.ADC_GetFlagStatus), (14 bytes).
    Removing stm32f10x_adc.o(i.ADC_GetITStatus), (26 bytes).
    Removing stm32f10x_adc.o(i.ADC_GetInjectedConversionValue), (8 bytes).
    Removing stm32f10x_adc.o(i.ADC_GetSoftwareStartConvStatus), (14 bytes).
    Removing stm32f10x_adc.o(i.ADC_GetSoftwareStartInjectedConvCmdStatus), (14 bytes).
    Removing stm32f10x_adc.o(i.ADC_ITConfig), (18 bytes).
    Removing stm32f10x_adc.o(i.ADC_InjectedChannelConfig), (74 bytes).
    Removing stm32f10x_adc.o(i.ADC_InjectedDiscModeCmd), (20 bytes).
    Removing stm32f10x_adc.o(i.ADC_InjectedSequencerLengthConfig), (16 bytes).
    Removing stm32f10x_adc.o(i.ADC_SetInjectedOffset), (4 bytes).
    Removing stm32f10x_adc.o(i.ADC_SoftwareStartInjectedConvCmd), (20 bytes).
    Removing stm32f10x_adc.o(i.ADC_StructInit), (18 bytes).
    Removing stm32f10x_adc.o(i.ADC_TempSensorVrefintCmd), (28 bytes).
    Removing stm32f10x_dac.o(i.DAC_DMACmd), (24 bytes).
    Removing stm32f10x_dac.o(i.DAC_DeInit), (24 bytes).
    Removing stm32f10x_dac.o(i.DAC_DualSoftwareTriggerCmd), (28 bytes).
    Removing stm32f10x_dac.o(i.DAC_GetDataOutputValue), (16 bytes).
    Removing stm32f10x_dac.o(i.DAC_SetChannel2Data), (12 bytes).
    Removing stm32f10x_dac.o(i.DAC_SetDualChannelData), (28 bytes).
    Removing stm32f10x_dac.o(i.DAC_StructInit), (12 bytes).
    Removing stm32f10x_dac.o(i.DAC_WaveGenerationCmd), (24 bytes).
    Removing stm32f10x_flash.o(i.FLASH_EnableWriteProtection), (172 bytes).
    Removing stm32f10x_flash.o(i.FLASH_EraseAllBank1Pages), (56 bytes).
    Removing stm32f10x_flash.o(i.FLASH_EraseAllPages), (56 bytes).
    Removing stm32f10x_flash.o(i.FLASH_EraseOptionBytes), (124 bytes).
    Removing stm32f10x_flash.o(i.FLASH_GetFlagStatus), (32 bytes).
    Removing stm32f10x_flash.o(i.FLASH_GetPrefetchBufferStatus), (20 bytes).
    Removing stm32f10x_flash.o(i.FLASH_GetReadOutProtectionStatus), (20 bytes).
    Removing stm32f10x_flash.o(i.FLASH_GetStatus), (40 bytes).
    Removing stm32f10x_flash.o(i.FLASH_GetUserOptionByte), (12 bytes).
    Removing stm32f10x_flash.o(i.FLASH_GetWriteProtectionOptionByte), (12 bytes).
    Removing stm32f10x_flash.o(i.FLASH_HalfCycleAccessCmd), (24 bytes).
    Removing stm32f10x_flash.o(i.FLASH_ITConfig), (24 bytes).
    Removing stm32f10x_flash.o(i.FLASH_LockBank1), (16 bytes).
    Removing stm32f10x_flash.o(i.FLASH_PrefetchBufferCmd), (24 bytes).
    Removing stm32f10x_flash.o(i.FLASH_ProgramHalfWord), (52 bytes).
    Removing stm32f10x_flash.o(i.FLASH_ProgramOptionByteData), (76 bytes).
    Removing stm32f10x_flash.o(i.FLASH_ReadOutProtection), (136 bytes).
    Removing stm32f10x_flash.o(i.FLASH_SetLatency), (20 bytes).
    Removing stm32f10x_flash.o(i.FLASH_UnlockBank1), (24 bytes).
    Removing stm32f10x_flash.o(i.FLASH_UserOptionByteConfig), (96 bytes).
    Removing stm32f10x_flash.o(i.FLASH_WaitForLastBank1Operation), (36 bytes).
    Removing system_stm32f10x.o(i.SystemCoreClockUpdate), (104 bytes).
    Removing system_stm32f10x.o(.data), (20 bytes).
    Removing core_cm3.o(.emb_text), (32 bytes).
    Removing startup_stm32f10x_hd.o(HEAP), (512 bytes).
    Removing glcd.o(i.GUI_Chinese), (68 bytes).
    Removing glcd.o(i.GUI_Text_Amplifier16), (72 bytes).
    Removing glcd.o(i.GUI_Text_Amplifier4), (72 bytes).
    Removing glcd.o(i.LCD_DrawLine), (224 bytes).
    Removing glcd.o(i.LCD_EightPoint), (152 bytes).
    Removing glcd.o(i.LCD_MidpointCircle), (196 bytes).
    Removing glcd.o(i.LCD_Rectangle), (144 bytes).
    Removing glcd.o(i.LCD_Triangle_Down), (308 bytes).
    Removing glcd.o(i.LCD_Triangle_Up), (308 bytes).
    Removing glcd.o(i.LCD_WriteReg), (8 bytes).
    Removing glcd.o(i.LCD_WriteRegData), (16 bytes).
    Removing glcd.o(i.PutChar_Amplifier16), (196 bytes).
    Removing glcd.o(i.PutChar_Amplifier4), (140 bytes).
    Removing glcd.o(i.PutChinese), (88 bytes).
    Removing glcd.o(i.PutChinese_Amplifier4), (88 bytes).
    Removing ui.o(i.draw_check), (2 bytes).
    Removing ui.o(i.draw_edit), (2 bytes).
    Removing stm32f10x_systick.o(i.SysTick_CounterCmd), (36 bytes).
    Removing stm32f10x_systick.o(i.SysTick_GetCounter), (8 bytes).
    Removing stm32f10x_systick.o(i.SysTick_GetFlagStatus), (32 bytes).
    Removing stm32f10x_systick.o(i.SysTick_SetReload), (8 bytes).
    Removing systick.o(i.delay_ms), (68 bytes).
    Removing systick.o(i.delay_us), (56 bytes).
    Removing touchpanel.o(i.DelayUS), (26 bytes).
    Removing touchpanel.o(i.DrawCross), (238 bytes).
    Removing touchpanel.o(i.RD_AD), (104 bytes).
    Removing touchpanel.o(i.Read_Ads7846), (304 bytes).
    Removing touchpanel.o(i.Read_X), (52 bytes).
    Removing touchpanel.o(i.Read_Y), (52 bytes).
    Removing touchpanel.o(i.TP_DrawPoint), (60 bytes).
    Removing touchpanel.o(i.TP_GetAdXY), (28 bytes).
    Removing touchpanel.o(i.TP_Init), (192 bytes).
    Removing touchpanel.o(i.WR_CMD), (52 bytes).
    Removing touchpanel.o(i.getDisplayPoint), (168 bytes).
    Removing touchpanel.o(.data), (4 bytes).

390 unused section(s) (total 17508 bytes) removed from the image.

==============================================================================

Image Symbol Table

    Local Symbols

    Symbol Name                              Value     Ov Type        Size  Object(Section)

    ../../../cmprslib/zerorunl2.c            0x00000000   Number         0  __dczerorl2.o ABSOLUTE
    ../../dunder.c                           0x00000000   Number         0  dunder.o ABSOLUTE
    ../../fpclassify.c                       0x00000000   Number         0  fpclassify.o ABSOLUTE
    ../../microlib/ctype/ctype.c             0x00000000   Number         0  isdigit_o.o ABSOLUTE
    ../../microlib/ctype/ctype.c             0x00000000   Number         0  iscntrl_o.o ABSOLUTE
    ../../microlib/ctype/ctype.c             0x00000000   Number         0  isblank_o.o ABSOLUTE
    ../../microlib/ctype/ctype.c             0x00000000   Number         0  isalpha_o.o ABSOLUTE
    ../../microlib/ctype/ctype.c             0x00000000   Number         0  isalnum_o.o ABSOLUTE
    ../../microlib/ctype/ctype.c             0x00000000   Number         0  ctype_o.o ABSOLUTE
    ../../microlib/ctype/ctype.c             0x00000000   Number         0  isxdigit_o.o ABSOLUTE
    ../../microlib/ctype/ctype.c             0x00000000   Number         0  isgraph_o.o ABSOLUTE
    ../../microlib/ctype/ctype.c             0x00000000   Number         0  islower_o.o ABSOLUTE
    ../../microlib/ctype/ctype.c             0x00000000   Number         0  isprint_o.o ABSOLUTE
    ../../microlib/ctype/ctype.c             0x00000000   Number         0  ispunct_o.o ABSOLUTE
    ../../microlib/ctype/ctype.c             0x00000000   Number         0  isspace_o.o ABSOLUTE
    ../../microlib/ctype/ctype.c             0x00000000   Number         0  isupper_o.o ABSOLUTE
    ../../microlib/d2f.c                     0x00000000   Number         0  d2f.o ABSOLUTE
    ../../microlib/division.c                0x00000000   Number         0  uidiv.o ABSOLUTE
    ../../microlib/division.c                0x00000000   Number         0  uldiv.o ABSOLUTE
    ../../microlib/errno.c                   0x00000000   Number         0  errno.o ABSOLUTE
    ../../microlib/f2d.c                     0x00000000   Number         0  f2d.o ABSOLUTE
    ../../microlib/fpadd.c                   0x00000000   Number         0  dadd.o ABSOLUTE
    ../../microlib/fpadd.c                   0x00000000   Number         0  fadd.o ABSOLUTE
    ../../microlib/fpdiv.c                   0x00000000   Number         0  fdiv.o ABSOLUTE
    ../../microlib/fpdiv.c                   0x00000000   Number         0  ddiv.o ABSOLUTE
    ../../microlib/fpepilogue.c              0x00000000   Number         0  depilogue.o ABSOLUTE
    ../../microlib/fpepilogue.c              0x00000000   Number         0  fepilogue.o ABSOLUTE
    ../../microlib/fpfix.c                   0x00000000   Number         0  dfixui.o ABSOLUTE
    ../../microlib/fpfix.c                   0x00000000   Number         0  dfixi.o ABSOLUTE
    ../../microlib/fpfix.c                   0x00000000   Number         0  ffixi.o ABSOLUTE
    ../../microlib/fpfix.c                   0x00000000   Number         0  ffixui.o ABSOLUTE
    ../../microlib/fpfix.c                   0x00000000   Number         0  dfixul.o ABSOLUTE
    ../../microlib/fpflt.c                   0x00000000   Number         0  ffltui.o ABSOLUTE
    ../../microlib/fpflt.c                   0x00000000   Number         0  dflti.o ABSOLUTE
    ../../microlib/fpflt.c                   0x00000000   Number         0  dfltui.o ABSOLUTE
    ../../microlib/fpflt.c                   0x00000000   Number         0  fflti.o ABSOLUTE
    ../../microlib/fpmul.c                   0x00000000   Number         0  dmul.o ABSOLUTE
    ../../microlib/fpmul.c                   0x00000000   Number         0  fmul.o ABSOLUTE
    ../../microlib/fpscalb.c                 0x00000000   Number         0  dscalb.o ABSOLUTE
    ../../microlib/fpsqrt.c                  0x00000000   Number         0  dsqrt.o ABSOLUTE
    ../../microlib/init/entry.s              0x00000000   Number         0  entry7a.o ABSOLUTE
    ../../microlib/init/entry.s              0x00000000   Number         0  entry5.o ABSOLUTE
    ../../microlib/init/entry.s              0x00000000   Number         0  entry2.o ABSOLUTE
    ../../microlib/init/entry.s              0x00000000   Number         0  entry.o ABSOLUTE
    ../../microlib/init/entry.s              0x00000000   Number         0  entry8.o ABSOLUTE
    ../../microlib/init/entry.s              0x00000000   Number         0  entry7b.o ABSOLUTE
    ../../microlib/longlong.c                0x00000000   Number         0  llushr.o ABSOLUTE
    ../../microlib/longlong.c                0x00000000   Number         0  llsshr.o ABSOLUTE
    ../../microlib/longlong.c                0x00000000   Number         0  llshl.o ABSOLUTE
    ../../microlib/printf/printf.c           0x00000000   Number         0  printfb.o ABSOLUTE
    ../../microlib/printf/printf.c           0x00000000   Number         0  printf0.o ABSOLUTE
    ../../microlib/printf/printf.c           0x00000000   Number         0  printf1.o ABSOLUTE
    ../../microlib/printf/printf.c           0x00000000   Number         0  printf3.o ABSOLUTE
    ../../microlib/printf/printf.c           0x00000000   Number         0  printfa.o ABSOLUTE
    ../../microlib/printf/printf.c           0x00000000   Number         0  printf2.o ABSOLUTE
    ../../microlib/printf/printf.c           0x00000000   Number         0  printf8.o ABSOLUTE
    ../../microlib/printf/printf.c           0x00000000   Number         0  printf7.o ABSOLUTE
    ../../microlib/printf/printf.c           0x00000000   Number         0  printf6.o ABSOLUTE
    ../../microlib/printf/printf.c           0x00000000   Number         0  printf5.o ABSOLUTE
    ../../microlib/printf/printf.c           0x00000000   Number         0  printf4.o ABSOLUTE
    ../../microlib/printf/stubs.s            0x00000000   Number         0  stubs.o ABSOLUTE
    ../../microlib/stdio/streams.c           0x00000000   Number         0  stdout.o ABSOLUTE
    ../../microlib/string/memcpy.c           0x00000000   Number         0  memcpyb.o ABSOLUTE
    ../../microlib/string/memcpy.c           0x00000000   Number         0  memcpya.o ABSOLUTE
    ../../microlib/string/memset.c           0x00000000   Number         0  memseta.o ABSOLUTE
    ../../microlib/stubs.s                   0x00000000   Number         0  iusefp.o ABSOLUTE
    ../../poly.c                             0x00000000   Number         0  poly.o ABSOLUTE
    ../../pow.c                              0x00000000   Number         0  pow_x.o ABSOLUTE
    ../../pow.c                              0x00000000   Number         0  pow.o ABSOLUTE
    ../../qnan.c                             0x00000000   Number         0  qnan.o ABSOLUTE
    ../../scanf.c                            0x00000000   Number         0  strtol.o ABSOLUTE
    ../../scanf.c                            0x00000000   Number         0  _chval.o ABSOLUTE
    ../../scanf.c                            0x00000000   Number         0  atoi.o ABSOLUTE
    ../../scanf.c                            0x00000000   Number         0  _strtoul.o ABSOLUTE
    ../../sqrt.c                             0x00000000   Number         0  sqrt_x.o ABSOLUTE
    ../../sqrt.c                             0x00000000   Number         0  sqrt.o ABSOLUTE
    ..\..\..\Libraries\CMSIS\CM3\DeviceSupport\ST\STM32F10x\startup\arm\startup_stm32f10x_hd.s 0x00000000   Number         0  startup_stm32f10x_hd.o ABSOLUTE
    ..\..\..\Libraries\STM32F10x_StdPeriph_Driver\src\misc.c 0x00000000   Number         0  misc.o ABSOLUTE
    ..\..\..\Libraries\STM32F10x_StdPeriph_Driver\src\stm32f10x_adc.c 0x00000000   Number         0  stm32f10x_adc.o ABSOLUTE
    ..\..\..\Libraries\STM32F10x_StdPeriph_Driver\src\stm32f10x_dac.c 0x00000000   Number         0  stm32f10x_dac.o ABSOLUTE
    ..\..\..\Libraries\STM32F10x_StdPeriph_Driver\src\stm32f10x_dma.c 0x00000000   Number         0  stm32f10x_dma.o ABSOLUTE
    ..\..\..\Libraries\STM32F10x_StdPeriph_Driver\src\stm32f10x_exti.c 0x00000000   Number         0  stm32f10x_exti.o ABSOLUTE
    ..\..\..\Libraries\STM32F10x_StdPeriph_Driver\src\stm32f10x_flash.c 0x00000000   Number         0  stm32f10x_flash.o ABSOLUTE
    ..\..\..\Libraries\STM32F10x_StdPeriph_Driver\src\stm32f10x_fsmc.c 0x00000000   Number         0  stm32f10x_fsmc.o ABSOLUTE
    ..\..\..\Libraries\STM32F10x_StdPeriph_Driver\src\stm32f10x_gpio.c 0x00000000   Number         0  stm32f10x_gpio.o ABSOLUTE
    ..\..\..\Libraries\STM32F10x_StdPeriph_Driver\src\stm32f10x_i2c.c 0x00000000   Number         0  stm32f10x_i2c.o ABSOLUTE
    ..\..\..\Libraries\STM32F10x_StdPeriph_Driver\src\stm32f10x_rcc.c 0x00000000   Number         0  stm32f10x_rcc.o ABSOLUTE
    ..\..\..\Libraries\STM32F10x_StdPeriph_Driver\src\stm32f10x_sdio.c 0x00000000   Number         0  stm32f10x_sdio.o ABSOLUTE
    ..\..\..\Libraries\STM32F10x_StdPeriph_Driver\src\stm32f10x_spi.c 0x00000000   Number         0  stm32f10x_spi.o ABSOLUTE
    ..\..\..\Libraries\STM32F10x_StdPeriph_Driver\src\stm32f10x_tim.c 0x00000000   Number         0  stm32f10x_tim.o ABSOLUTE
    ..\..\..\Libraries\STM32F10x_StdPeriph_Driver\src\stm32f10x_usart.c 0x00000000   Number         0  stm32f10x_usart.o ABSOLUTE
    ..\..\Common\LCD\ui\ui.c                 0x00000000   Number         0  ui.o ABSOLUTE
    ..\..\Common\lib\base.c                  0x00000000   Number         0  base.o ABSOLUTE
    ..\..\F800\Libraries\CMSIS\CM3\CoreSupport\core_cm3.c 0x00000000   Number         0  core_cm3.o ABSOLUTE
    ..\..\F800\Libraries\CMSIS\CM3\DeviceSupport\ST\STM32F10x\system_stm32f10x.c 0x00000000   Number         0  system_stm32f10x.o ABSOLUTE
    ..\LCD\gl_ui.c                           0x00000000   Number         0  gl_ui.o ABSOLUTE
    ..\LCD\zimo_st9.C                        0x00000000   Number         0  zimo_st9.o ABSOLUTE
    ..\USER\APP\flash.c                      0x00000000   Number         0  flash.o ABSOLUTE
    ..\USER\APP\gl_key.c                     0x00000000   Number         0  gl_key.o ABSOLUTE
    ..\USER\APP\key.c                        0x00000000   Number         0  key.o ABSOLUTE
    ..\USER\APP\main.c                       0x00000000   Number         0  main.o ABSOLUTE
    ..\USER\APP\stm32f10x_it.c               0x00000000   Number         0  stm32f10x_it.o ABSOLUTE
    ..\USER\APP\usart.c                      0x00000000   Number         0  usart.o ABSOLUTE
    ..\USER\GLCD\GLCD.c                      0x00000000   Number         0  glcd.o ABSOLUTE
    ..\USER\GLCD\PictureData.c               0x00000000   Number         0  picturedata.o ABSOLUTE
    ..\USER\GLCD\TS100_Draw.c                0x00000000   Number         0  ts100_draw.o ABSOLUTE
    ..\USER\SysTick\stm32f10x_systick.c      0x00000000   Number         0  stm32f10x_systick.o ABSOLUTE
    ..\USER\SysTick\systick.c                0x00000000   Number         0  systick.o ABSOLUTE
    ..\USER\TouchPanel\TouchPanel.c          0x00000000   Number         0  touchpanel.o ABSOLUTE
    ..\\..\\F800\271\244\263\314\\Libraries\\CMSIS\\CM3\\CoreSupport\\core_cm3.c 0x00000000   Number         0  core_cm3.o ABSOLUTE
    cdcmple.s                                0x00000000   Number         0  cdcmple.o ABSOLUTE
    cdrcmple.s                               0x00000000   Number         0  cdrcmple.o ABSOLUTE
    dc.s                                     0x00000000   Number         0  dc.o ABSOLUTE
    handlers.s                               0x00000000   Number         0  handlers.o ABSOLUTE
    init.s                                   0x00000000   Number         0  init.o ABSOLUTE
    RESET                                    0x08000000   Section      304  startup_stm32f10x_hd.o(RESET)
    .ARM.Collect$$$$00000000                 0x08000130   Section        0  entry.o(.ARM.Collect$$$$00000000)
    .ARM.Collect$$$$00000001                 0x08000130   Section        4  entry2.o(.ARM.Collect$$$$00000001)
    .ARM.Collect$$$$00000004                 0x08000134   Section        4  entry5.o(.ARM.Collect$$$$00000004)
    .ARM.Collect$$$$00000008                 0x08000138   Section        0  entry7b.o(.ARM.Collect$$$$00000008)
    .ARM.Collect$$$$00000009                 0x08000138   Section        8  entry8.o(.ARM.Collect$$$$00000009)
    .ARM.Collect$$$$00002712                 0x08000140   Section        4  entry2.o(.ARM.Collect$$$$00002712)
    __lit__00000000                          0x08000140   Data           4  entry2.o(.ARM.Collect$$$$00002712)
    .text                                    0x08000144   Section       36  startup_stm32f10x_hd.o(.text)
    .text                                    0x08000168   Section        0  memcpya.o(.text)
    .text                                    0x0800018c   Section        0  memseta.o(.text)
    .text                                    0x080001b2   Section        0  atoi.o(.text)
    .text                                    0x080001cc   Section        0  fadd.o(.text)
    .text                                    0x0800027c   Section        0  fmul.o(.text)
    .text                                    0x080002e8   Section        0  fdiv.o(.text)
    .text                                    0x08000368   Section        0  dadd.o(.text)
    .text                                    0x080004b4   Section        0  dmul.o(.text)
    .text                                    0x08000594   Section        0  ddiv.o(.text)
    .text                                    0x08000672   Section        0  dscalb.o(.text)
    .text                                    0x080006a0   Section        0  fflti.o(.text)
    .text                                    0x080006b2   Section        0  ffltui.o(.text)
    .text                                    0x080006bc   Section        0  dflti.o(.text)
    .text                                    0x080006de   Section        0  dfltui.o(.text)
    .text                                    0x080006f8   Section        0  ffixi.o(.text)
    .text                                    0x0800072a   Section        0  ffixui.o(.text)
    .text                                    0x08000752   Section        0  dfixi.o(.text)
    .text                                    0x08000790   Section        0  dfixui.o(.text)
    .text                                    0x080007be   Section        0  f2d.o(.text)
    .text                                    0x080007ec   Section       40  cdcmple.o(.text)
    .text                                    0x08000814   Section        0  d2f.o(.text)
    .text                                    0x0800084c   Section        0  uidiv.o(.text)
    .text                                    0x08000878   Section        0  uldiv.o(.text)
    .text                                    0x080008da   Section        0  llshl.o(.text)
    .text                                    0x080008f8   Section        0  llushr.o(.text)
    .text                                    0x08000918   Section        0  llsshr.o(.text)
    .text                                    0x0800093c   Section        0  strtol.o(.text)
    .text                                    0x080009ac   Section        0  iusefp.o(.text)
    .text                                    0x080009ac   Section        0  fepilogue.o(.text)
    .text                                    0x08000a18   Section        0  depilogue.o(.text)
    .text                                    0x08000ad6   Section        0  dfixul.o(.text)
    .text                                    0x08000b08   Section       40  cdrcmple.o(.text)
    .text                                    0x08000b30   Section       36  init.o(.text)
    .text                                    0x08000b54   Section        0  ctype_o.o(.text)
    .text                                    0x08000b5c   Section        0  _strtoul.o(.text)
    .text                                    0x08000bfa   Section        0  dsqrt.o(.text)
    .text                                    0x08000c9c   Section        0  _chval.o(.text)
    .text                                    0x08000cb8   Section        0  __dczerorl2.o(.text)
    i.ADC1_2_IRQHandler                      0x08000d14   Section        0  stm32f10x_it.o(i.ADC1_2_IRQHandler)
    i.ADC_Cmd                                0x08000d16   Section        0  stm32f10x_adc.o(i.ADC_Cmd)
    i.ADC_Configuration                      0x08000d2c   Section        0  main.o(i.ADC_Configuration)
    i.ADC_DMACmd                             0x08000e08   Section        0  stm32f10x_adc.o(i.ADC_DMACmd)
    i.ADC_GetCalibrationStatus               0x08000e1c   Section        0  stm32f10x_adc.o(i.ADC_GetCalibrationStatus)
    i.ADC_GetResetCalibrationStatus          0x08000e2a   Section        0  stm32f10x_adc.o(i.ADC_GetResetCalibrationStatus)
    i.ADC_Init                               0x08000e38   Section        0  stm32f10x_adc.o(i.ADC_Init)
    i.ADC_RegularChannelConfig               0x08000e80   Section        0  stm32f10x_adc.o(i.ADC_RegularChannelConfig)
    i.ADC_ResetCalibration                   0x08000ef4   Section        0  stm32f10x_adc.o(i.ADC_ResetCalibration)
    i.ADC_SoftwareStartConvCmd               0x08000efe   Section        0  stm32f10x_adc.o(i.ADC_SoftwareStartConvCmd)
    i.ADC_StartCalibration                   0x08000f12   Section        0  stm32f10x_adc.o(i.ADC_StartCalibration)
    i.AutoCtrlPower                          0x08000f1c   Section        0  main.o(i.AutoCtrlPower)
    i.BusFault_Handler                       0x08001008   Section        0  stm32f10x_it.o(i.BusFault_Handler)
    i.Check1963                              0x0800100c   Section        0  main.o(i.Check1963)
    i.CheckLCD                               0x080010f0   Section        0  main.o(i.CheckLCD)
    i.CommDMAMode                            0x08001188   Section        0  usart.o(i.CommDMAMode)
    i.CommInit                               0x080012bc   Section        0  usart.o(i.CommInit)
    i.CommRecv                               0x08001448   Section        0  usart.o(i.CommRecv)
    i.CommTurnBuffer                         0x08001488   Section        0  usart.o(i.CommTurnBuffer)
    i.Ctrl_Operating_Mode                    0x080014cc   Section        0  main.o(i.Ctrl_Operating_Mode)
    i.Ctrl_Power                             0x0800176c   Section        0  main.o(i.Ctrl_Power)
    i.Ctrl_RedLight                          0x08001950   Section        0  main.o(i.Ctrl_RedLight)
    i.Ctrl_Timing_Device                     0x08001968   Section        0  main.o(i.Ctrl_Timing_Device)
    i.Ctrl_Wavelength                        0x080019a4   Section        0  main.o(i.Ctrl_Wavelength)
    i.DAC_Cmd                                0x08001a60   Section        0  stm32f10x_dac.o(i.DAC_Cmd)
    i.DAC_Configuration                      0x08001a78   Section        0  main.o(i.DAC_Configuration)
    i.DAC_Init                               0x08001aa4   Section        0  stm32f10x_dac.o(i.DAC_Init)
    i.DAC_SetChannel1Data                    0x08001acc   Section        0  stm32f10x_dac.o(i.DAC_SetChannel1Data)
    i.DAC_SoftwareTriggerCmd                 0x08001ad8   Section        0  stm32f10x_dac.o(i.DAC_SoftwareTriggerCmd)
    i.DMA1_Channel2_IRQHandler               0x08001af4   Section        0  stm32f10x_it.o(i.DMA1_Channel2_IRQHandler)
    i.DMA1_Channel3_IRQHandler               0x08001b0c   Section        0  stm32f10x_it.o(i.DMA1_Channel3_IRQHandler)
    i.DMA1_Channel4_IRQHandler               0x08001b44   Section        0  stm32f10x_it.o(i.DMA1_Channel4_IRQHandler)
    i.DMA1_Channel5_IRQHandler               0x08001b60   Section        0  stm32f10x_it.o(i.DMA1_Channel5_IRQHandler)
    i.DMA1_Channel6_IRQHandler               0x08001b98   Section        0  stm32f10x_it.o(i.DMA1_Channel6_IRQHandler)
    i.DMA1_Channel7_IRQHandler               0x08001bd0   Section        0  stm32f10x_it.o(i.DMA1_Channel7_IRQHandler)
    i.DMA_ClearFlag                          0x08001bec   Section        0  stm32f10x_dma.o(i.DMA_ClearFlag)
    i.DMA_ClearITPendingBit                  0x08001c04   Section        0  stm32f10x_dma.o(i.DMA_ClearITPendingBit)
    i.DMA_Cmd                                0x08001c1c   Section        0  stm32f10x_dma.o(i.DMA_Cmd)
    i.DMA_DeInit                             0x08001c34   Section        0  stm32f10x_dma.o(i.DMA_DeInit)
    i.DMA_GetFlagStatus                      0x08001d18   Section        0  stm32f10x_dma.o(i.DMA_GetFlagStatus)
    i.DMA_GetITStatus                        0x08001d38   Section        0  stm32f10x_dma.o(i.DMA_GetITStatus)
    i.DMA_ITConfig                           0x08001d58   Section        0  stm32f10x_dma.o(i.DMA_ITConfig)
    i.DMA_Init                               0x08001d68   Section        0  stm32f10x_dma.o(i.DMA_Init)
    i.DebugMon_Handler                       0x08001da2   Section        0  stm32f10x_it.o(i.DebugMon_Handler)
    i.Delay_ms                               0x08001da4   Section        0  key.o(i.Delay_ms)
    i.DrawFocus                              0x08001db4   Section        0  main.o(i.DrawFocus)
    i.EXTI1_IRQHandler                       0x08001dec   Section        0  stm32f10x_it.o(i.EXTI1_IRQHandler)
    i.EXTI2_IRQHandler                       0x08001e0a   Section        0  stm32f10x_it.o(i.EXTI2_IRQHandler)
    i.EXTI3_IRQHandler                       0x08001e28   Section        0  stm32f10x_it.o(i.EXTI3_IRQHandler)
    i.EXTI9_5_IRQHandler                     0x08001e46   Section        0  stm32f10x_it.o(i.EXTI9_5_IRQHandler)
    i.EXTI_ClearITPendingBit                 0x08001e8c   Section        0  stm32f10x_exti.o(i.EXTI_ClearITPendingBit)
    i.EXTI_GetITStatus                       0x08001e98   Section        0  stm32f10x_exti.o(i.EXTI_GetITStatus)
    i.FLASH_ClearFlag                        0x08001eb8   Section        0  stm32f10x_flash.o(i.FLASH_ClearFlag)
    i.FLASH_Configuration                    0x08001ec4   Section        0  main.o(i.FLASH_Configuration)
    i.FLASH_ErasePage                        0x08002040   Section        0  stm32f10x_flash.o(i.FLASH_ErasePage)
    i.FLASH_GetBank1Status                   0x0800207c   Section        0  stm32f10x_flash.o(i.FLASH_GetBank1Status)
    i.FLASH_Lock                             0x080020a4   Section        0  stm32f10x_flash.o(i.FLASH_Lock)
    i.FLASH_ProgramWord                      0x080020b4   Section        0  stm32f10x_flash.o(i.FLASH_ProgramWord)
    i.FLASH_Unlock                           0x080020fc   Section        0  stm32f10x_flash.o(i.FLASH_Unlock)
    i.FLASH_WaitForLastOperation             0x08002114   Section        0  stm32f10x_flash.o(i.FLASH_WaitForLastOperation)
    i.FSMC_NORSRAMCmd                        0x08002138   Section        0  stm32f10x_fsmc.o(i.FSMC_NORSRAMCmd)
    i.FSMC_NORSRAMInit                       0x08002158   Section        0  stm32f10x_fsmc.o(i.FSMC_NORSRAMInit)
    i.Function_IO_config                     0x08002218   Section        0  main.o(i.Function_IO_config)
    i.GPIO_Init                              0x080022f4   Section        0  stm32f10x_gpio.o(i.GPIO_Init)
    i.GPIO_PinRemapConfig                    0x08002398   Section        0  stm32f10x_gpio.o(i.GPIO_PinRemapConfig)
    i.GPIO_ReadInputDataBit                  0x080023f0   Section        0  stm32f10x_gpio.o(i.GPIO_ReadInputDataBit)
    i.GPIO_ResetBits                         0x080023fe   Section        0  stm32f10x_gpio.o(i.GPIO_ResetBits)
    i.GPIO_SetBits                           0x08002402   Section        0  stm32f10x_gpio.o(i.GPIO_SetBits)
    i.GUI_Text                               0x08002408   Section        0  glcd.o(i.GUI_Text)
    i.GetAD                                  0x08002450   Section        0  main.o(i.GetAD)
    i.HardFault_Handler                      0x080024a4   Section        0  stm32f10x_it.o(i.HardFault_Handler)
    i.InputPanel                             0x080024a8   Section        0  ts100_draw.o(i.InputPanel)
    i.IsHacker                               0x0800275c   Section        0  main.o(i.IsHacker)
    i.KeyDown                                0x080027a8   Section        0  key.o(i.KeyDown)
    i.KeyDown_Ex                             0x0800280c   Section        0  key.o(i.KeyDown_Ex)
    i.KeyPress                               0x08002834   Section        0  key.o(i.KeyPress)
    i.LCD_Batter_Show                        0x080028a0   Section        0  ts100_draw.o(i.LCD_Batter_Show)
    i.LCD_Clear                              0x080028f8   Section        0  glcd.o(i.LCD_Clear)
    i.LCD_Configuration                      0x08002928   Section        0  glcd.o(i.LCD_Configuration)
    i.LCD_CtrlLinesConfig                    0x08002938   Section        0  glcd.o(i.LCD_CtrlLinesConfig)
    i.LCD_DrawMain                           0x080029f4   Section        0  main.o(i.LCD_DrawMain)
    i.LCD_FLSAH_DrawPicture                  0x08002aac   Section        0  ts100_draw.o(i.LCD_FLSAH_DrawPicture)
    i.LCD_FSMCConfig                         0x08002b44   Section        0  glcd.o(i.LCD_FSMCConfig)
    LCD_FSMCConfig                           0x08002b45   Thumb Code   100  glcd.o(i.LCD_FSMCConfig)
    i.LCD_GetPoint                           0x08002ba8   Section        0  glcd.o(i.LCD_GetPoint)
    i.LCD_Initializtion                      0x08002bc4   Section        0  glcd.o(i.LCD_Initializtion)
    i.LCD_OperatMode_Selection               0x08002d8c   Section        0  ts100_draw.o(i.LCD_OperatMode_Selection)
    i.LCD_Power_Control_Selection_Ex         0x08002f80   Section        0  ts100_draw.o(i.LCD_Power_Control_Selection_Ex)
    i.LCD_ReadReg                            0x08003040   Section        0  glcd.o(i.LCD_ReadReg)
    i.LCD_RedLight_Show                      0x08003054   Section        0  ts100_draw.o(i.LCD_RedLight_Show)
    i.LCD_SetArea                            0x08003078   Section        0  gl_ui.o(i.LCD_SetArea)
    i.LCD_SetBacklight                       0x080030a8   Section        0  glcd.o(i.LCD_SetBacklight)
    i.LCD_SetPoint                           0x080030cc   Section        0  glcd.o(i.LCD_SetPoint)
    i.LCD_Timing_Display                     0x080030f4   Section        0  ts100_draw.o(i.LCD_Timing_Display)
    i.LCD_Wavelength_Selection_Ex            0x08003170   Section        0  ts100_draw.o(i.LCD_Wavelength_Selection_Ex)
    i.MemManage_Handler                      0x080032d0   Section        0  stm32f10x_it.o(i.MemManage_Handler)
    i.NMI_Handler                            0x080032d2   Section        0  stm32f10x_it.o(i.NMI_Handler)
    i.NVIC_Configuration                     0x080032d4   Section        0  main.o(i.NVIC_Configuration)
    i.NVIC_Init                              0x08003360   Section        0  misc.o(i.NVIC_Init)
    i.NVIC_PriorityGroupConfig               0x080033c4   Section        0  misc.o(i.NVIC_PriorityGroupConfig)
    i.NVIC_SetVectorTable                    0x080033d8   Section        0  misc.o(i.NVIC_SetVectorTable)
    i.PendSV_Handler                         0x080033ec   Section        0  stm32f10x_it.o(i.PendSV_Handler)
    i.ProChargerMonitor                      0x080033f0   Section        0  main.o(i.ProChargerMonitor)
    i.ProGet1963State                        0x080035dc   Section        0  main.o(i.ProGet1963State)
    i.ProTick1963IsLive                      0x080039e0   Section        0  main.o(i.ProTick1963IsLive)
    i.ProTimerShutdown                       0x08003a24   Section        0  main.o(i.ProTimerShutdown)
    i.PutChar                                0x08003a90   Section        0  glcd.o(i.PutChar)
    i.RCC_AHBPeriphClockCmd                  0x08003ae0   Section        0  stm32f10x_rcc.o(i.RCC_AHBPeriphClockCmd)
    i.RCC_APB1PeriphClockCmd                 0x08003af8   Section        0  stm32f10x_rcc.o(i.RCC_APB1PeriphClockCmd)
    i.RCC_APB2PeriphClockCmd                 0x08003b10   Section        0  stm32f10x_rcc.o(i.RCC_APB2PeriphClockCmd)
    i.RCC_GetClocksFreq                      0x08003b28   Section        0  stm32f10x_rcc.o(i.RCC_GetClocksFreq)
    i.ReadFlash                              0x08003bc4   Section        0  flash.o(i.ReadFlash)
    i.SSD1963_GPIO_WR                        0x08003bec   Section        0  glcd.o(i.SSD1963_GPIO_WR)
    SSD1963_GPIO_WR                          0x08003bed   Thumb Code    30  glcd.o(i.SSD1963_GPIO_WR)
    i.SSD1963_IsRestart                      0x08003c14   Section        0  glcd.o(i.SSD1963_IsRestart)
    i.SSD1963_PowerUp                        0x08003c34   Section        0  glcd.o(i.SSD1963_PowerUp)
    i.SSD1963_SPI_Write                      0x08003c98   Section        0  glcd.o(i.SSD1963_SPI_Write)
    SSD1963_SPI_Write                        0x08003c99   Thumb Code    52  glcd.o(i.SSD1963_SPI_Write)
    i.SSD1963_SPI_WriteReg                   0x08003ccc   Section        0  glcd.o(i.SSD1963_SPI_WriteReg)
    SSD1963_SPI_WriteReg                     0x08003ccd   Thumb Code    42  glcd.o(i.SSD1963_SPI_WriteReg)
    i.SSD1963_SetCheckFlag                   0x08003cf8   Section        0  glcd.o(i.SSD1963_SetCheckFlag)
    i.SVC_Handler                            0x08003d10   Section        0  stm32f10x_it.o(i.SVC_Handler)
    i.SetSysClockTo72                        0x08003d14   Section        0  system_stm32f10x.o(i.SetSysClockTo72)
    SetSysClockTo72                          0x08003d15   Thumb Code   138  system_stm32f10x.o(i.SetSysClockTo72)
    i.Show_Matrix_zimo                       0x08003da8   Section        0  ts100_draw.o(i.Show_Matrix_zimo)
    i.SysTick_CLKSourceConfig                0x08003e12   Section        0  misc.o(i.SysTick_CLKSourceConfig)
    i.SysTick_ITConfig                       0x08003e2a   Section        0  stm32f10x_systick.o(i.SysTick_ITConfig)
    i.SystemInit                             0x08003e44   Section        0  system_stm32f10x.o(i.SystemInit)
    i.TIM2_IRQHandler                        0x08003e94   Section        0  stm32f10x_it.o(i.TIM2_IRQHandler)
    i.TIM2_Init                              0x08003f9c   Section        0  main.o(i.TIM2_Init)
    i.TIM3_IRQHandler                        0x08003fe8   Section        0  stm32f10x_it.o(i.TIM3_IRQHandler)
    i.TIM3_Init                              0x08004030   Section        0  main.o(i.TIM3_Init)
    i.TIM4_IRQHandler                        0x08004084   Section        0  stm32f10x_it.o(i.TIM4_IRQHandler)
    i.TIM4_Init                              0x080040cc   Section        0  main.o(i.TIM4_Init)
    i.TIM5_IRQHandler                        0x08004120   Section        0  stm32f10x_it.o(i.TIM5_IRQHandler)
    i.TIM5_Init                              0x08004168   Section        0  main.o(i.TIM5_Init)
    i.TIM6_IRQHandler                        0x080041bc   Section        0  stm32f10x_it.o(i.TIM6_IRQHandler)
    i.TIM6_Init                              0x08004240   Section        0  main.o(i.TIM6_Init)
    i.TIM_ClearITPendingBit                  0x0800428c   Section        0  stm32f10x_tim.o(i.TIM_ClearITPendingBit)
    i.TIM_Cmd                                0x08004292   Section        0  stm32f10x_tim.o(i.TIM_Cmd)
    i.TIM_GetITStatus                        0x080042a6   Section        0  stm32f10x_tim.o(i.TIM_GetITStatus)
    i.TIM_ITConfig                           0x080042bc   Section        0  stm32f10x_tim.o(i.TIM_ITConfig)
    i.TIM_TimeBaseInit                       0x080042cc   Section        0  stm32f10x_tim.o(i.TIM_TimeBaseInit)
    i.TouchPanel_Calibrate                   0x08004368   Section        0  touchpanel.o(i.TouchPanel_Calibrate)
    i.TurnOffPower                           0x080043ac   Section        0  main.o(i.TurnOffPower)
    i.TurnOnPower                            0x080043fc   Section        0  main.o(i.TurnOnPower)
    i.UI_DebugMain                           0x0800446c   Section        0  ts100_draw.o(i.UI_DebugMain)
    i.UI_ProMode                             0x08004984   Section        0  main.o(i.UI_ProMode)
    i.UI_ProPower                            0x080049dc   Section        0  main.o(i.UI_ProPower)
    i.UI_ProRedLight_ShutdownTimer           0x08004a34   Section        0  main.o(i.UI_ProRedLight_ShutdownTimer)
    i.UI_ProRedraw                           0x08004ac4   Section        0  main.o(i.UI_ProRedraw)
    i.UI_ProWavelength                       0x08004b38   Section        0  main.o(i.UI_ProWavelength)
    i.UI_ProductionAdjust                    0x08004bb0   Section        0  main.o(i.UI_ProductionAdjust)
    i.USART_Cmd                              0x08004f1c   Section        0  stm32f10x_usart.o(i.USART_Cmd)
    i.USART_Configuration                    0x08004f30   Section        0  main.o(i.USART_Configuration)
    i.USART_DMACmd                           0x08004f84   Section        0  stm32f10x_usart.o(i.USART_DMACmd)
    i.USART_GetFlagStatus                    0x08004f94   Section        0  stm32f10x_usart.o(i.USART_GetFlagStatus)
    i.USART_Init                             0x08004fa4   Section        0  stm32f10x_usart.o(i.USART_Init)
    i.USART_SendData                         0x08005058   Section        0  stm32f10x_usart.o(i.USART_SendData)
    i.UsageFault_Handler                     0x08005060   Section        0  stm32f10x_it.o(i.UsageFault_Handler)
    i.WriteFlash                             0x08005062   Section        0  flash.o(i.WriteFlash)
    i.__0printf                              0x080050a8   Section        0  printfa.o(i.__0printf)
    i.__0sprintf                             0x080050c8   Section        0  printfa.o(i.__0sprintf)
    i.__ARM_fpclassify                       0x080050f0   Section        0  fpclassify.o(i.__ARM_fpclassify)
    i.__aeabi_errno_addr                     0x08005118   Section        0  errno.o(i.__aeabi_errno_addr)
    i.__kernel_poly                          0x08005120   Section        0  poly.o(i.__kernel_poly)
    i.__mathlib_dbl_underflow                0x080051cc   Section        0  dunder.o(i.__mathlib_dbl_underflow)
    i.__scatterload_copy                     0x080051dc   Section       14  handlers.o(i.__scatterload_copy)
    i.__scatterload_null                     0x080051ea   Section        2  handlers.o(i.__scatterload_null)
    i.__scatterload_zeroinit                 0x080051ec   Section       14  handlers.o(i.__scatterload_zeroinit)
    i.__set_errno                            0x080051fc   Section        0  errno.o(i.__set_errno)
    i._fp_digits                             0x08005208   Section        0  printfa.o(i._fp_digits)
    _fp_digits                               0x08005209   Thumb Code   324  printfa.o(i._fp_digits)
    i._printf_core                           0x08005360   Section        0  printfa.o(i._printf_core)
    _printf_core                             0x08005361   Thumb Code  1782  printfa.o(i._printf_core)
    i._printf_post_padding                   0x08005a64   Section        0  printfa.o(i._printf_post_padding)
    _printf_post_padding                     0x08005a65   Thumb Code    38  printfa.o(i._printf_post_padding)
    i._printf_pre_padding                    0x08005a8a   Section        0  printfa.o(i._printf_pre_padding)
    _printf_pre_padding                      0x08005a8b   Thumb Code    48  printfa.o(i._printf_pre_padding)
    i._sputc                                 0x08005aba   Section        0  printfa.o(i._sputc)
    _sputc                                   0x08005abb   Thumb Code    10  printfa.o(i._sputc)
    i.atof_                                  0x08005ac4   Section        0  base.o(i.atof_)
    i.delay_init                             0x08005bb8   Section        0  systick.o(i.delay_init)
    i.delay_ms                               0x08005bf4   Section        0  glcd.o(i.delay_ms)
    delay_ms                                 0x08005bf5   Thumb Code    28  glcd.o(i.delay_ms)
    i.draw_arrow                             0x08005c10   Section        0  ui.o(i.draw_arrow)
    i.fputc                                  0x08005c1c   Section        0  usart.o(i.fputc)
    i.gl_clear                               0x08005c40   Section        0  gl_ui.o(i.gl_clear)
    i.gl_fill_rect                           0x08005c78   Section        0  gl_ui.o(i.gl_fill_rect)
    i.gl_horizon_line                        0x08005d00   Section        0  gl_ui.o(i.gl_horizon_line)
    i.gl_key_exti                            0x08005d2c   Section        0  gl_key.o(i.gl_key_exti)
    i.gl_picture                             0x08005d6c   Section        0  gl_ui.o(i.gl_picture)
    i.gl_setarea                             0x08005f84   Section        0  gl_ui.o(i.gl_setarea)
    i.gl_setpoint                            0x08005f94   Section        0  gl_ui.o(i.gl_setpoint)
    i.gl_text                                0x08005fa0   Section        0  gl_ui.o(i.gl_text)
    i.gl_ui_setbkcolor                       0x08006004   Section        0  gl_ui.o(i.gl_ui_setbkcolor)
    i.gl_ui_setbkmode                        0x08006014   Section        0  gl_ui.o(i.gl_ui_setbkmode)
    i.gl_ui_setbrushcolor                    0x08006024   Section        0  gl_ui.o(i.gl_ui_setbrushcolor)
    i.gl_ui_setfontcolor                     0x08006034   Section        0  gl_ui.o(i.gl_ui_setfontcolor)
    i.gl_ui_setlib                           0x08006044   Section        0  gl_ui.o(i.gl_ui_setlib)
    i.gl_ui_setpencolor                      0x08006090   Section        0  gl_ui.o(i.gl_ui_setpencolor)
    i.gl_vertical_line                       0x080060a0   Section        0  gl_ui.o(i.gl_vertical_line)
    i.main                                   0x080060cc   Section        0  main.o(i.main)
    i.pow                                    0x08006208   Section        0  pow.o(i.pow)
    i.setCalibrationMatrix                   0x08006bf4   Section        0  touchpanel.o(i.setCalibrationMatrix)
    i.sqrt                                   0x08006d38   Section        0  sqrt.o(i.sqrt)
    .constdata                               0x08006d84   Section    27702  picturedata.o(.constdata)
    .constdata                               0x0800d9ba   Section     4158  picturedata.o(.constdata)
    .constdata                               0x0800e9f8   Section     4928  picturedata.o(.constdata)
    .constdata                               0x0800fd38   Section     4928  picturedata.o(.constdata)
    .constdata                               0x08011078   Section     4928  picturedata.o(.constdata)
    .constdata                               0x080123b8   Section     4928  picturedata.o(.constdata)
    .constdata                               0x080136f8   Section     4928  picturedata.o(.constdata)
    .constdata                               0x08014a38   Section     4928  picturedata.o(.constdata)
    .constdata                               0x08015d78   Section     5456  picturedata.o(.constdata)
    .constdata                               0x080172c8   Section     5456  picturedata.o(.constdata)
    .constdata                               0x08018818   Section     6776  picturedata.o(.constdata)
    .constdata                               0x0801a290   Section     6776  picturedata.o(.constdata)
    .constdata                               0x0801bd08   Section      312  zimo_st9.o(.constdata)
    .constdata                               0x0801be40   Section      312  zimo_st9.o(.constdata)
    .constdata                               0x0801bf78   Section      120  zimo_st9.o(.constdata)
    .constdata                               0x0801bff0   Section       24  zimo_st9.o(.constdata)
    .constdata                               0x0801c008   Section       12  zimo_st9.o(.constdata)
    .constdata                               0x0801c014   Section       12  zimo_st9.o(.constdata)
    .constdata                               0x0801c020   Section      120  main.o(.constdata)
    .constdata                               0x0801c098   Section      114  usart.o(.constdata)
    .constdata                               0x0801c10c   Section      764  ts100_draw.o(.constdata)
    .constdata                               0x0801c408   Section      136  pow.o(.constdata)
    bp                                       0x0801c408   Data          16  pow.o(.constdata)
    dp_h                                     0x0801c418   Data          16  pow.o(.constdata)
    dp_l                                     0x0801c428   Data          16  pow.o(.constdata)
    L                                        0x0801c438   Data          48  pow.o(.constdata)
    P                                        0x0801c468   Data          40  pow.o(.constdata)
    .constdata                               0x0801c490   Section        8  qnan.o(.constdata)
    .constdata                               0x0801c498   Section      129  ctype_o.o(.constdata)
    .constdata                               0x0801c51c   Section        4  ctype_o.o(.constdata)
    table                                    0x0801c51c   Data           4  ctype_o.o(.constdata)
    .conststring                             0x0801c520   Section      112  ts100_draw.o(.conststring)
    .data                                    0x20000000   Section      224  picturedata.o(.data)
    .data                                    0x200000e0   Section      224  picturedata.o(.data)
    .data                                    0x200001c0   Section      224  picturedata.o(.data)
    .data                                    0x200002a0   Section      224  picturedata.o(.data)
    .data                                    0x20000380   Section      224  picturedata.o(.data)
    .data                                    0x20000460   Section      224  picturedata.o(.data)
    .data                                    0x20000540   Section      224  picturedata.o(.data)
    .data                                    0x20000620   Section      224  picturedata.o(.data)
    .data                                    0x20000700   Section      224  picturedata.o(.data)
    .data                                    0x200007e0   Section      224  picturedata.o(.data)
    .data                                    0x200008c0   Section      224  picturedata.o(.data)
    .data                                    0x200009a0   Section       58  picturedata.o(.data)
    .data                                    0x200009da   Section       58  picturedata.o(.data)
    .data                                    0x20000a14   Section       58  picturedata.o(.data)
    .data                                    0x20000a4e   Section       58  picturedata.o(.data)
    .data                                    0x20000a88   Section       58  picturedata.o(.data)
    .data                                    0x20000ac2   Section       58  picturedata.o(.data)
    .data                                    0x20000afc   Section       58  picturedata.o(.data)
    .data                                    0x20000b36   Section       58  picturedata.o(.data)
    .data                                    0x20000b70   Section       58  picturedata.o(.data)
    .data                                    0x20000baa   Section       58  picturedata.o(.data)
    .data                                    0x20000be4   Section       58  picturedata.o(.data)
    .data                                    0x20000c1e   Section       58  picturedata.o(.data)
    .data                                    0x20000c58   Section       58  picturedata.o(.data)
    .data                                    0x20000c92   Section       58  picturedata.o(.data)
    .data                                    0x20000ccc   Section       58  picturedata.o(.data)
    .data                                    0x20000d06   Section       58  picturedata.o(.data)
    .data                                    0x20000d40   Section       16  gl_ui.o(.data)
    _bkmode                                  0x20000d40   Data           1  gl_ui.o(.data)
    _fcolor                                  0x20000d42   Data           2  gl_ui.o(.data)
    _bkcolor                                 0x20000d44   Data           2  gl_ui.o(.data)
    _pencolor                                0x20000d46   Data           2  gl_ui.o(.data)
    _brushcolor                              0x20000d48   Data           2  gl_ui.o(.data)
    _setpoint                                0x20000d4c   Data           4  gl_ui.o(.data)
    .data                                    0x20000d50   Section      512  zimo_st9.o(.data)
    .data                                    0x20000f50   Section      128  zimo_st9.o(.data)
    .data                                    0x20000fd0   Section       16  key.o(.data)
    secend                                   0x20000fd0   Data           1  key.o(.data)
    oldkpin                                  0x20000fd4   Data           2  key.o(.data)
    oldkpin                                  0x20000fd6   Data           2  key.o(.data)
    oldGPIOx                                 0x20000fd8   Data           4  key.o(.data)
    oldGPIOx                                 0x20000fdc   Data           4  key.o(.data)
    .data                                    0x20000fe0   Section      224  main.o(.data)
    state                                    0x20000fe4   Data           1  main.o(.data)
    times                                    0x20000fe5   Data           1  main.o(.data)
    adjust_time                              0x20001000   Data           2  main.o(.data)
    balance_times                            0x20001002   Data           2  main.o(.data)
    last_level                               0x20001004   Data           2  main.o(.data)
    level_show                               0x20001006   Data           2  main.o(.data)
    flag                                     0x20001008   Data           2  main.o(.data)
    .data                                    0x200010c0   Section        1  main.o(.data)
    .data                                    0x200010c1   Section        1  main.o(.data)
    .data                                    0x200010c2   Section        2  main.o(.data)
    .data                                    0x200010c4   Section        2  main.o(.data)
    .data                                    0x200010c6   Section        2  main.o(.data)
    .data                                    0x200010c8   Section        1  main.o(.data)
    .data                                    0x200010ca   Section        2  main.o(.data)
    .data                                    0x200010cc   Section        1  main.o(.data)
    .data                                    0x200010cd   Section        1  main.o(.data)
    .data                                    0x200010ce   Section        1  main.o(.data)
    .data                                    0x200010cf   Section        1  main.o(.data)
    .data                                    0x200010d0   Section        1  main.o(.data)
    .data                                    0x200010d2   Section        6  main.o(.data)
    .data                                    0x200010d8   Section        6  main.o(.data)
    .data                                    0x200010e0   Section       28  gl_key.o(.data)
    lastup                                   0x200010ec   Data           4  gl_key.o(.data)
    times                                    0x200010f0   Data           4  gl_key.o(.data)
    lastdown                                 0x200010f4   Data           4  gl_key.o(.data)
    lastup                                   0x200010f8   Data           4  gl_key.o(.data)
    .data                                    0x200010fc   Section        4  usart.o(.data)
    comSelect                                0x200010fc   Data           4  usart.o(.data)
    .data                                    0x20001100   Section       20  stm32f10x_rcc.o(.data)
    ADCPrescTable                            0x20001100   Data           4  stm32f10x_rcc.o(.data)
    APBAHBPrescTable                         0x20001104   Data          16  stm32f10x_rcc.o(.data)
    .data                                    0x20001114   Section        1  glcd.o(.data)
    _gpioStatus                              0x20001114   Data           1  glcd.o(.data)
    .data                                    0x20001116   Section        4  systick.o(.data)
    delay_fac_us                             0x20001116   Data           1  systick.o(.data)
    Status                                   0x20001117   Data           1  systick.o(.data)
    delay_fac_ms                             0x20001118   Data           2  systick.o(.data)
    .data                                    0x2000111a   Section       16  touchpanel.o(.data)
    screen                                   0x2000111a   Data           4  touchpanel.o(.data)
    .data                                    0x2000112c   Section        4  stdout.o(.data)
    .data                                    0x20001130   Section        4  errno.o(.data)
    _errno                                   0x20001130   Data           4  errno.o(.data)
    .bss                                     0x20001134   Section     1284  gl_ui.o(.bss)
    _zm_lib                                  0x20001334   Data         772  gl_ui.o(.bss)
    .bss                                     0x20001638   Section     4582  main.o(.bss)
    strout                                   0x20001638   Data          70  main.o(.bss)
    .bss                                     0x20002820   Section      160  gl_key.o(.bss)
    .bss                                     0x200028c0   Section      828  usart.o(.bss)
    comdev                                   0x20002adc   Data          20  usart.o(.bss)
    comtbuf                                  0x20002af0   Data         268  usart.o(.bss)
    .bss                                     0x20002c00   Section       68  touchpanel.o(.bss)
    STACK                                    0x20002c48   Section     1024  startup_stm32f10x_hd.o(STACK)

    Global Symbols

    Symbol Name                              Value     Ov Type        Size  Object(Section)

    BuildAttributes$$THM_ISAv4$P$D$K$B$S$PE$A:L22UL41UL21$X:L11$S22US41US21$IEEE1$IW$USESV6$~STKCKD$USESV7$~SHL$OTIME$ROPI$IEEEX$EBA8$MICROLIB$REQ8$PRES8$EABIv2 0x00000000   Number         0  anon$$obj.o ABSOLUTE
    __ARM_use_no_argv                        0x00000000   Number         0  main.o ABSOLUTE
    _printf_a                                0x00000000   Number         0  stubs.o ABSOLUTE
    _printf_c                                0x00000000   Number         0  stubs.o ABSOLUTE
    _printf_charcount                        0x00000000   Number         0  stubs.o ABSOLUTE
    _printf_d                                0x00000000   Number         0  stubs.o ABSOLUTE
    _printf_e                                0x00000000   Number         0  stubs.o ABSOLUTE
    _printf_f                                0x00000000   Number         0  stubs.o ABSOLUTE
    _printf_flags                            0x00000000   Number         0  stubs.o ABSOLUTE
    _printf_fp_dec                           0x00000000   Number         0  stubs.o ABSOLUTE
    _printf_fp_hex                           0x00000000   Number         0  stubs.o ABSOLUTE
    _printf_g                                0x00000000   Number         0  stubs.o ABSOLUTE
    _printf_i                                0x00000000   Number         0  stubs.o ABSOLUTE
    _printf_int_dec                          0x00000000   Number         0  stubs.o ABSOLUTE
    _printf_l                                0x00000000   Number         0  stubs.o ABSOLUTE
    _printf_lc                               0x00000000   Number         0  stubs.o ABSOLUTE
    _printf_ll                               0x00000000   Number         0  stubs.o ABSOLUTE
    _printf_lld                              0x00000000   Number         0  stubs.o ABSOLUTE
    _printf_lli                              0x00000000   Number         0  stubs.o ABSOLUTE
    _printf_llo                              0x00000000   Number         0  stubs.o ABSOLUTE
    _printf_llu                              0x00000000   Number         0  stubs.o ABSOLUTE
    _printf_llx                              0x00000000   Number         0  stubs.o ABSOLUTE
    _printf_longlong_dec                     0x00000000   Number         0  stubs.o ABSOLUTE
    _printf_longlong_hex                     0x00000000   Number         0  stubs.o ABSOLUTE
    _printf_longlong_oct                     0x00000000   Number         0  stubs.o ABSOLUTE
    _printf_ls                               0x00000000   Number         0  stubs.o ABSOLUTE
    _printf_mbtowc                           0x00000000   Number         0  stubs.o ABSOLUTE
    _printf_n                                0x00000000   Number         0  stubs.o ABSOLUTE
    _printf_o                                0x00000000   Number         0  stubs.o ABSOLUTE
    _printf_p                                0x00000000   Number         0  stubs.o ABSOLUTE
    _printf_percent                          0x00000000   Number         0  stubs.o ABSOLUTE
    _printf_pre_padding                      0x00000000   Number         0  stubs.o ABSOLUTE
    _printf_return_value                     0x00000000   Number         0  stubs.o ABSOLUTE
    _printf_s                                0x00000000   Number         0  stubs.o ABSOLUTE
    _printf_sizespec                         0x00000000   Number         0  stubs.o ABSOLUTE
    _printf_str                              0x00000000   Number         0  stubs.o ABSOLUTE
    _printf_truncate_signed                  0x00000000   Number         0  stubs.o ABSOLUTE
    _printf_truncate_unsigned                0x00000000   Number         0  stubs.o ABSOLUTE
    _printf_u                                0x00000000   Number         0  stubs.o ABSOLUTE
    _printf_wc                               0x00000000   Number         0  stubs.o ABSOLUTE
    _printf_wctomb                           0x00000000   Number         0  stubs.o ABSOLUTE
    _printf_widthprec                        0x00000000   Number         0  stubs.o ABSOLUTE
    _printf_x                                0x00000000   Number         0  stubs.o ABSOLUTE
    _clock_init                               - Undefined Weak Reference
    __Vectors_Size                           0x00000130   Number         0  startup_stm32f10x_hd.o ABSOLUTE
    __Vectors                                0x08000000   Data           4  startup_stm32f10x_hd.o(RESET)
    __Vectors_End                            0x08000130   Data           0  startup_stm32f10x_hd.o(RESET)
    __main                                   0x08000131   Thumb Code     0  entry.o(.ARM.Collect$$$$00000000)
    _main_stk                                0x08000131   Thumb Code     0  entry2.o(.ARM.Collect$$$$00000001)
    _main_scatterload                        0x08000135   Thumb Code     0  entry5.o(.ARM.Collect$$$$00000004)
    __main_after_scatterload                 0x08000139   Thumb Code     0  entry5.o(.ARM.Collect$$$$00000004)
    _main_clock                              0x08000139   Thumb Code     0  entry7b.o(.ARM.Collect$$$$00000008)
    _main_init                               0x08000139   Thumb Code     0  entry8.o(.ARM.Collect$$$$00000009)
    Reset_Handler                            0x08000145   Thumb Code     8  startup_stm32f10x_hd.o(.text)
    SysTick_Handler                          0x0800015d   Thumb Code     2  startup_stm32f10x_hd.o(.text)
    ADC3_IRQHandler                          0x0800015f   Thumb Code     0  startup_stm32f10x_hd.o(.text)
    CAN1_RX1_IRQHandler                      0x0800015f   Thumb Code     0  startup_stm32f10x_hd.o(.text)
    CAN1_SCE_IRQHandler                      0x0800015f   Thumb Code     0  startup_stm32f10x_hd.o(.text)
    DMA1_Channel1_IRQHandler                 0x0800015f   Thumb Code     0  startup_stm32f10x_hd.o(.text)
    DMA2_Channel1_IRQHandler                 0x0800015f   Thumb Code     0  startup_stm32f10x_hd.o(.text)
    DMA2_Channel2_IRQHandler                 0x0800015f   Thumb Code     0  startup_stm32f10x_hd.o(.text)
    DMA2_Channel3_IRQHandler                 0x0800015f   Thumb Code     0  startup_stm32f10x_hd.o(.text)
    DMA2_Channel4_5_IRQHandler               0x0800015f   Thumb Code     0  startup_stm32f10x_hd.o(.text)
    EXTI0_IRQHandler                         0x0800015f   Thumb Code     0  startup_stm32f10x_hd.o(.text)
    EXTI15_10_IRQHandler                     0x0800015f   Thumb Code     0  startup_stm32f10x_hd.o(.text)
    EXTI4_IRQHandler                         0x0800015f   Thumb Code     0  startup_stm32f10x_hd.o(.text)
    FLASH_IRQHandler                         0x0800015f   Thumb Code     0  startup_stm32f10x_hd.o(.text)
    FSMC_IRQHandler                          0x0800015f   Thumb Code     0  startup_stm32f10x_hd.o(.text)
    I2C1_ER_IRQHandler                       0x0800015f   Thumb Code     0  startup_stm32f10x_hd.o(.text)
    I2C1_EV_IRQHandler                       0x0800015f   Thumb Code     0  startup_stm32f10x_hd.o(.text)
    I2C2_ER_IRQHandler                       0x0800015f   Thumb Code     0  startup_stm32f10x_hd.o(.text)
    I2C2_EV_IRQHandler                       0x0800015f   Thumb Code     0  startup_stm32f10x_hd.o(.text)
    PVD_IRQHandler                           0x0800015f   Thumb Code     0  startup_stm32f10x_hd.o(.text)
    RCC_IRQHandler                           0x0800015f   Thumb Code     0  startup_stm32f10x_hd.o(.text)
    RTCAlarm_IRQHandler                      0x0800015f   Thumb Code     0  startup_stm32f10x_hd.o(.text)
    RTC_IRQHandler                           0x0800015f   Thumb Code     0  startup_stm32f10x_hd.o(.text)
    SDIO_IRQHandler                          0x0800015f   Thumb Code     0  startup_stm32f10x_hd.o(.text)
    SPI1_IRQHandler                          0x0800015f   Thumb Code     0  startup_stm32f10x_hd.o(.text)
    SPI2_IRQHandler                          0x0800015f   Thumb Code     0  startup_stm32f10x_hd.o(.text)
    SPI3_IRQHandler                          0x0800015f   Thumb Code     0  startup_stm32f10x_hd.o(.text)
    TAMPER_IRQHandler                        0x0800015f   Thumb Code     0  startup_stm32f10x_hd.o(.text)
    TIM1_BRK_IRQHandler                      0x0800015f   Thumb Code     0  startup_stm32f10x_hd.o(.text)
    TIM1_CC_IRQHandler                       0x0800015f   Thumb Code     0  startup_stm32f10x_hd.o(.text)
    TIM1_TRG_COM_IRQHandler                  0x0800015f   Thumb Code     0  startup_stm32f10x_hd.o(.text)
    TIM1_UP_IRQHandler                       0x0800015f   Thumb Code     0  startup_stm32f10x_hd.o(.text)
    TIM7_IRQHandler                          0x0800015f   Thumb Code     0  startup_stm32f10x_hd.o(.text)
    TIM8_BRK_IRQHandler                      0x0800015f   Thumb Code     0  startup_stm32f10x_hd.o(.text)
    TIM8_CC_IRQHandler                       0x0800015f   Thumb Code     0  startup_stm32f10x_hd.o(.text)
    TIM8_TRG_COM_IRQHandler                  0x0800015f   Thumb Code     0  startup_stm32f10x_hd.o(.text)
    TIM8_UP_IRQHandler                       0x0800015f   Thumb Code     0  startup_stm32f10x_hd.o(.text)
    UART4_IRQHandler                         0x0800015f   Thumb Code     0  startup_stm32f10x_hd.o(.text)
    UART5_IRQHandler                         0x0800015f   Thumb Code     0  startup_stm32f10x_hd.o(.text)
    USART1_IRQHandler                        0x0800015f   Thumb Code     0  startup_stm32f10x_hd.o(.text)
    USART2_IRQHandler                        0x0800015f   Thumb Code     0  startup_stm32f10x_hd.o(.text)
    USART3_IRQHandler                        0x0800015f   Thumb Code     0  startup_stm32f10x_hd.o(.text)
    USBWakeUp_IRQHandler                     0x0800015f   Thumb Code     0  startup_stm32f10x_hd.o(.text)
    USB_HP_CAN1_TX_IRQHandler                0x0800015f   Thumb Code     0  startup_stm32f10x_hd.o(.text)
    USB_LP_CAN1_RX0_IRQHandler               0x0800015f   Thumb Code     0  startup_stm32f10x_hd.o(.text)
    WWDG_IRQHandler                          0x0800015f   Thumb Code     0  startup_stm32f10x_hd.o(.text)
    __aeabi_memcpy                           0x08000169   Thumb Code    36  memcpya.o(.text)
    __aeabi_memcpy4                          0x08000169   Thumb Code     0  memcpya.o(.text)
    __aeabi_memcpy8                          0x08000169   Thumb Code     0  memcpya.o(.text)
    __aeabi_memset                           0x0800018d   Thumb Code    14  memseta.o(.text)
    __aeabi_memset4                          0x0800018d   Thumb Code     0  memseta.o(.text)
    __aeabi_memset8                          0x0800018d   Thumb Code     0  memseta.o(.text)
    __aeabi_memclr                           0x0800019b   Thumb Code     4  memseta.o(.text)
    __aeabi_memclr4                          0x0800019b   Thumb Code     0  memseta.o(.text)
    __aeabi_memclr8                          0x0800019b   Thumb Code     0  memseta.o(.text)
    _memset$wrapper                          0x0800019f   Thumb Code    20  memseta.o(.text)
    atoi                                     0x080001b3   Thumb Code    26  atoi.o(.text)
    __aeabi_fadd                             0x080001cd   Thumb Code   164  fadd.o(.text)
    __aeabi_fsub                             0x08000271   Thumb Code     6  fadd.o(.text)
    __aeabi_frsub                            0x08000277   Thumb Code     6  fadd.o(.text)
    __aeabi_fmul                             0x0800027d   Thumb Code   108  fmul.o(.text)
    __aeabi_fdiv                             0x080002e9   Thumb Code   128  fdiv.o(.text)
    __aeabi_dadd                             0x08000369   Thumb Code   320  dadd.o(.text)
    __aeabi_dsub                             0x080004a9   Thumb Code     6  dadd.o(.text)
    __aeabi_drsub                            0x080004af   Thumb Code     6  dadd.o(.text)
    __aeabi_dmul                             0x080004b5   Thumb Code   224  dmul.o(.text)
    __aeabi_ddiv                             0x08000595   Thumb Code   222  ddiv.o(.text)
    __ARM_scalbn                             0x08000673   Thumb Code    46  dscalb.o(.text)
    scalbn                                   0x08000673   Thumb Code     0  dscalb.o(.text)
    __aeabi_i2f                              0x080006a1   Thumb Code    18  fflti.o(.text)
    __aeabi_ui2f                             0x080006b3   Thumb Code    10  ffltui.o(.text)
    __aeabi_i2d                              0x080006bd   Thumb Code    34  dflti.o(.text)
    __aeabi_ui2d                             0x080006df   Thumb Code    26  dfltui.o(.text)
    __aeabi_f2iz                             0x080006f9   Thumb Code    50  ffixi.o(.text)
    __aeabi_f2uiz                            0x0800072b   Thumb Code    40  ffixui.o(.text)
    __aeabi_d2iz                             0x08000753   Thumb Code    62  dfixi.o(.text)
    __aeabi_d2uiz                            0x08000791   Thumb Code    46  dfixui.o(.text)
    __aeabi_f2d                              0x080007bf   Thumb Code    44  f2d.o(.text)
    __aeabi_cdcmpeq                          0x080007ed   Thumb Code     0  cdcmple.o(.text)
    __aeabi_cdcmple                          0x080007ed   Thumb Code    38  cdcmple.o(.text)
    __aeabi_d2f                              0x08000815   Thumb Code    56  d2f.o(.text)
    __aeabi_uidiv                            0x0800084d   Thumb Code     0  uidiv.o(.text)
    __aeabi_uidivmod                         0x0800084d   Thumb Code    44  uidiv.o(.text)
    __aeabi_uldivmod                         0x08000879   Thumb Code    98  uldiv.o(.text)
    __aeabi_llsl                             0x080008db   Thumb Code    30  llshl.o(.text)
    _ll_shift_l                              0x080008db   Thumb Code     0  llshl.o(.text)
    __aeabi_llsr                             0x080008f9   Thumb Code    32  llushr.o(.text)
    _ll_ushift_r                             0x080008f9   Thumb Code     0  llushr.o(.text)
    __aeabi_lasr                             0x08000919   Thumb Code    36  llsshr.o(.text)
    _ll_sshift_r                             0x08000919   Thumb Code     0  llsshr.o(.text)
    strtol                                   0x0800093d   Thumb Code   112  strtol.o(.text)
    __I$use$fp                               0x080009ad   Thumb Code     0  iusefp.o(.text)
    _float_round                             0x080009ad   Thumb Code    18  fepilogue.o(.text)
    _float_epilogue                          0x080009bf   Thumb Code    90  fepilogue.o(.text)
    _double_round                            0x08000a19   Thumb Code    26  depilogue.o(.text)
    _double_epilogue                         0x08000a33   Thumb Code   164  depilogue.o(.text)
    __aeabi_d2ulz                            0x08000ad7   Thumb Code    48  dfixul.o(.text)
    __aeabi_cdrcmple                         0x08000b09   Thumb Code    38  cdrcmple.o(.text)
    __scatterload                            0x08000b31   Thumb Code    28  init.o(.text)
    __scatterload_rt2                        0x08000b31   Thumb Code     0  init.o(.text)
    __rt_ctype_table                         0x08000b55   Thumb Code     4  ctype_o.o(.text)
    _strtoul                                 0x08000b5d   Thumb Code   158  _strtoul.o(.text)
    _dsqrt                                   0x08000bfb   Thumb Code   162  dsqrt.o(.text)
    _chval                                   0x08000c9d   Thumb Code    28  _chval.o(.text)
    __decompress                             0x08000cb9   Thumb Code     0  __dczerorl2.o(.text)
    __decompress1                            0x08000cb9   Thumb Code    92  __dczerorl2.o(.text)
    ADC1_2_IRQHandler                        0x08000d15   Thumb Code     2  stm32f10x_it.o(i.ADC1_2_IRQHandler)
    ADC_Cmd                                  0x08000d17   Thumb Code    20  stm32f10x_adc.o(i.ADC_Cmd)
    ADC_Configuration                        0x08000d2d   Thumb Code   208  main.o(i.ADC_Configuration)
    ADC_DMACmd                               0x08000e09   Thumb Code    20  stm32f10x_adc.o(i.ADC_DMACmd)
    ADC_GetCalibrationStatus                 0x08000e1d   Thumb Code    14  stm32f10x_adc.o(i.ADC_GetCalibrationStatus)
    ADC_GetResetCalibrationStatus            0x08000e2b   Thumb Code    14  stm32f10x_adc.o(i.ADC_GetResetCalibrationStatus)
    ADC_Init                                 0x08000e39   Thumb Code    62  stm32f10x_adc.o(i.ADC_Init)
    ADC_RegularChannelConfig                 0x08000e81   Thumb Code   116  stm32f10x_adc.o(i.ADC_RegularChannelConfig)
    ADC_ResetCalibration                     0x08000ef5   Thumb Code    10  stm32f10x_adc.o(i.ADC_ResetCalibration)
    ADC_SoftwareStartConvCmd                 0x08000eff   Thumb Code    20  stm32f10x_adc.o(i.ADC_SoftwareStartConvCmd)
    ADC_StartCalibration                     0x08000f13   Thumb Code    10  stm32f10x_adc.o(i.ADC_StartCalibration)
    AutoCtrlPower                            0x08000f1d   Thumb Code   204  main.o(i.AutoCtrlPower)
    BusFault_Handler                         0x08001009   Thumb Code     2  stm32f10x_it.o(i.BusFault_Handler)
    Check1963                                0x0800100d   Thumb Code   128  main.o(i.Check1963)
    CheckLCD                                 0x080010f1   Thumb Code    54  main.o(i.CheckLCD)
    CommDMAMode                              0x08001189   Thumb Code   282  usart.o(i.CommDMAMode)
    CommInit                                 0x080012bd   Thumb Code   366  usart.o(i.CommInit)
    CommRecv                                 0x08001449   Thumb Code    58  usart.o(i.CommRecv)
    CommTurnBuffer                           0x08001489   Thumb Code    62  usart.o(i.CommTurnBuffer)
    Ctrl_Operating_Mode                      0x080014cd   Thumb Code   650  main.o(i.Ctrl_Operating_Mode)
    Ctrl_Power                               0x0800176d   Thumb Code   412  main.o(i.Ctrl_Power)
    Ctrl_RedLight                            0x08001951   Thumb Code    20  main.o(i.Ctrl_RedLight)
    Ctrl_Timing_Device                       0x08001969   Thumb Code    56  main.o(i.Ctrl_Timing_Device)
    Ctrl_Wavelength                          0x080019a5   Thumb Code   170  main.o(i.Ctrl_Wavelength)
    DAC_Cmd                                  0x08001a61   Thumb Code    20  stm32f10x_dac.o(i.DAC_Cmd)
    DAC_Configuration                        0x08001a79   Thumb Code    44  main.o(i.DAC_Configuration)
    DAC_Init                                 0x08001aa5   Thumb Code    36  stm32f10x_dac.o(i.DAC_Init)
    DAC_SetChannel1Data                      0x08001acd   Thumb Code     8  stm32f10x_dac.o(i.DAC_SetChannel1Data)
    DAC_SoftwareTriggerCmd                   0x08001ad9   Thumb Code    24  stm32f10x_dac.o(i.DAC_SoftwareTriggerCmd)
    DMA1_Channel2_IRQHandler                 0x08001af5   Thumb Code    24  stm32f10x_it.o(i.DMA1_Channel2_IRQHandler)
    DMA1_Channel3_IRQHandler                 0x08001b0d   Thumb Code    46  stm32f10x_it.o(i.DMA1_Channel3_IRQHandler)
    DMA1_Channel4_IRQHandler                 0x08001b45   Thumb Code    28  stm32f10x_it.o(i.DMA1_Channel4_IRQHandler)
    DMA1_Channel5_IRQHandler                 0x08001b61   Thumb Code    46  stm32f10x_it.o(i.DMA1_Channel5_IRQHandler)
    DMA1_Channel6_IRQHandler                 0x08001b99   Thumb Code    46  stm32f10x_it.o(i.DMA1_Channel6_IRQHandler)
    DMA1_Channel7_IRQHandler                 0x08001bd1   Thumb Code    28  stm32f10x_it.o(i.DMA1_Channel7_IRQHandler)
    DMA_ClearFlag                            0x08001bed   Thumb Code    16  stm32f10x_dma.o(i.DMA_ClearFlag)
    DMA_ClearITPendingBit                    0x08001c05   Thumb Code    16  stm32f10x_dma.o(i.DMA_ClearITPendingBit)
    DMA_Cmd                                  0x08001c1d   Thumb Code    22  stm32f10x_dma.o(i.DMA_Cmd)
    DMA_DeInit                               0x08001c35   Thumb Code   218  stm32f10x_dma.o(i.DMA_DeInit)
    DMA_GetFlagStatus                        0x08001d19   Thumb Code    24  stm32f10x_dma.o(i.DMA_GetFlagStatus)
    DMA_GetITStatus                          0x08001d39   Thumb Code    24  stm32f10x_dma.o(i.DMA_GetITStatus)
    DMA_ITConfig                             0x08001d59   Thumb Code    16  stm32f10x_dma.o(i.DMA_ITConfig)
    DMA_Init                                 0x08001d69   Thumb Code    58  stm32f10x_dma.o(i.DMA_Init)
    DebugMon_Handler                         0x08001da3   Thumb Code     2  stm32f10x_it.o(i.DebugMon_Handler)
    Delay_ms                                 0x08001da5   Thumb Code    12  key.o(i.Delay_ms)
    DrawFocus                                0x08001db5   Thumb Code    56  main.o(i.DrawFocus)
    EXTI1_IRQHandler                         0x08001ded   Thumb Code    30  stm32f10x_it.o(i.EXTI1_IRQHandler)
    EXTI2_IRQHandler                         0x08001e0b   Thumb Code    30  stm32f10x_it.o(i.EXTI2_IRQHandler)
    EXTI3_IRQHandler                         0x08001e29   Thumb Code    30  stm32f10x_it.o(i.EXTI3_IRQHandler)
    EXTI9_5_IRQHandler                       0x08001e47   Thumb Code    70  stm32f10x_it.o(i.EXTI9_5_IRQHandler)
    EXTI_ClearITPendingBit                   0x08001e8d   Thumb Code     6  stm32f10x_exti.o(i.EXTI_ClearITPendingBit)
    EXTI_GetITStatus                         0x08001e99   Thumb Code    28  stm32f10x_exti.o(i.EXTI_GetITStatus)
    FLASH_ClearFlag                          0x08001eb9   Thumb Code     6  stm32f10x_flash.o(i.FLASH_ClearFlag)
    FLASH_Configuration                      0x08001ec5   Thumb Code   174  main.o(i.FLASH_Configuration)
    FLASH_ErasePage                          0x08002041   Thumb Code    56  stm32f10x_flash.o(i.FLASH_ErasePage)
    FLASH_GetBank1Status                     0x0800207d   Thumb Code    34  stm32f10x_flash.o(i.FLASH_GetBank1Status)
    FLASH_Lock                               0x080020a5   Thumb Code    12  stm32f10x_flash.o(i.FLASH_Lock)
    FLASH_ProgramWord                        0x080020b5   Thumb Code    68  stm32f10x_flash.o(i.FLASH_ProgramWord)
    FLASH_Unlock                             0x080020fd   Thumb Code    12  stm32f10x_flash.o(i.FLASH_Unlock)
    FLASH_WaitForLastOperation               0x08002115   Thumb Code    36  stm32f10x_flash.o(i.FLASH_WaitForLastOperation)
    FSMC_NORSRAMCmd                          0x08002139   Thumb Code    28  stm32f10x_fsmc.o(i.FSMC_NORSRAMCmd)
    FSMC_NORSRAMInit                         0x08002159   Thumb Code   192  stm32f10x_fsmc.o(i.FSMC_NORSRAMInit)
    Function_IO_config                       0x08002219   Thumb Code   206  main.o(i.Function_IO_config)
    GPIO_Init                                0x080022f5   Thumb Code   164  stm32f10x_gpio.o(i.GPIO_Init)
    GPIO_PinRemapConfig                      0x08002399   Thumb Code    82  stm32f10x_gpio.o(i.GPIO_PinRemapConfig)
    GPIO_ReadInputDataBit                    0x080023f1   Thumb Code    14  stm32f10x_gpio.o(i.GPIO_ReadInputDataBit)
    GPIO_ResetBits                           0x080023ff   Thumb Code     4  stm32f10x_gpio.o(i.GPIO_ResetBits)
    GPIO_SetBits                             0x08002403   Thumb Code     4  stm32f10x_gpio.o(i.GPIO_SetBits)
    GUI_Text                                 0x08002409   Thumb Code    72  glcd.o(i.GUI_Text)
    GetAD                                    0x08002451   Thumb Code    74  main.o(i.GetAD)
    HardFault_Handler                        0x080024a5   Thumb Code     2  stm32f10x_it.o(i.HardFault_Handler)
    InputPanel                               0x080024a9   Thumb Code   678  ts100_draw.o(i.InputPanel)
    IsHacker                                 0x0800275d   Thumb Code    66  main.o(i.IsHacker)
    KeyDown                                  0x080027a9   Thumb Code    94  key.o(i.KeyDown)
    KeyDown_Ex                               0x0800280d   Thumb Code    40  key.o(i.KeyDown_Ex)
    KeyPress                                 0x08002835   Thumb Code   102  key.o(i.KeyPress)
    LCD_Batter_Show                          0x080028a1   Thumb Code    64  ts100_draw.o(i.LCD_Batter_Show)
    LCD_Clear                                0x080028f9   Thumb Code    44  glcd.o(i.LCD_Clear)
    LCD_Configuration                        0x08002929   Thumb Code    14  glcd.o(i.LCD_Configuration)
    LCD_CtrlLinesConfig                      0x08002939   Thumb Code   174  glcd.o(i.LCD_CtrlLinesConfig)
    LCD_DrawMain                             0x080029f5   Thumb Code   168  main.o(i.LCD_DrawMain)
    LCD_FLSAH_DrawPicture                    0x08002aad   Thumb Code   152  ts100_draw.o(i.LCD_FLSAH_DrawPicture)
    LCD_GetPoint                             0x08002ba9   Thumb Code    24  glcd.o(i.LCD_GetPoint)
    LCD_Initializtion                        0x08002bc5   Thumb Code   450  glcd.o(i.LCD_Initializtion)
    LCD_OperatMode_Selection                 0x08002d8d   Thumb Code   458  ts100_draw.o(i.LCD_OperatMode_Selection)
    LCD_Power_Control_Selection_Ex           0x08002f81   Thumb Code   178  ts100_draw.o(i.LCD_Power_Control_Selection_Ex)
    LCD_ReadReg                              0x08003041   Thumb Code    16  glcd.o(i.LCD_ReadReg)
    LCD_RedLight_Show                        0x08003055   Thumb Code    26  ts100_draw.o(i.LCD_RedLight_Show)
    LCD_SetArea                              0x08003079   Thumb Code    42  gl_ui.o(i.LCD_SetArea)
    LCD_SetBacklight                         0x080030a9   Thumb Code    30  glcd.o(i.LCD_SetBacklight)
    LCD_SetPoint                             0x080030cd   Thumb Code    36  glcd.o(i.LCD_SetPoint)
    LCD_Timing_Display                       0x080030f5   Thumb Code    84  ts100_draw.o(i.LCD_Timing_Display)
    LCD_Wavelength_Selection_Ex              0x08003171   Thumb Code   318  ts100_draw.o(i.LCD_Wavelength_Selection_Ex)
    MemManage_Handler                        0x080032d1   Thumb Code     2  stm32f10x_it.o(i.MemManage_Handler)
    NMI_Handler                              0x080032d3   Thumb Code     2  stm32f10x_it.o(i.NMI_Handler)
    NVIC_Configuration                       0x080032d5   Thumb Code   138  main.o(i.NVIC_Configuration)
    NVIC_Init                                0x08003361   Thumb Code    90  misc.o(i.NVIC_Init)
    NVIC_PriorityGroupConfig                 0x080033c5   Thumb Code    10  misc.o(i.NVIC_PriorityGroupConfig)
    NVIC_SetVectorTable                      0x080033d9   Thumb Code    12  misc.o(i.NVIC_SetVectorTable)
    PendSV_Handler                           0x080033ed   Thumb Code     2  stm32f10x_it.o(i.PendSV_Handler)
    ProChargerMonitor                        0x080033f1   Thumb Code   382  main.o(i.ProChargerMonitor)
    ProGet1963State                          0x080035dd   Thumb Code   624  main.o(i.ProGet1963State)
    ProTick1963IsLive                        0x080039e1   Thumb Code    48  main.o(i.ProTick1963IsLive)
    ProTimerShutdown                         0x08003a25   Thumb Code    94  main.o(i.ProTimerShutdown)
    PutChar                                  0x08003a91   Thumb Code    78  glcd.o(i.PutChar)
    RCC_AHBPeriphClockCmd                    0x08003ae1   Thumb Code    18  stm32f10x_rcc.o(i.RCC_AHBPeriphClockCmd)
    RCC_APB1PeriphClockCmd                   0x08003af9   Thumb Code    18  stm32f10x_rcc.o(i.RCC_APB1PeriphClockCmd)
    RCC_APB2PeriphClockCmd                   0x08003b11   Thumb Code    18  stm32f10x_rcc.o(i.RCC_APB2PeriphClockCmd)
    RCC_GetClocksFreq                        0x08003b29   Thumb Code   138  stm32f10x_rcc.o(i.RCC_GetClocksFreq)
    ReadFlash                                0x08003bc5   Thumb Code    38  flash.o(i.ReadFlash)
    SSD1963_IsRestart                        0x08003c15   Thumb Code    28  glcd.o(i.SSD1963_IsRestart)
    SSD1963_PowerUp                          0x08003c35   Thumb Code    92  glcd.o(i.SSD1963_PowerUp)
    SSD1963_SetCheckFlag                     0x08003cf9   Thumb Code    20  glcd.o(i.SSD1963_SetCheckFlag)
    SVC_Handler                              0x08003d11   Thumb Code     2  stm32f10x_it.o(i.SVC_Handler)
    Show_Matrix_zimo                         0x08003da9   Thumb Code   106  ts100_draw.o(i.Show_Matrix_zimo)
    SysTick_CLKSourceConfig                  0x08003e13   Thumb Code    24  misc.o(i.SysTick_CLKSourceConfig)
    SysTick_ITConfig                         0x08003e2b   Thumb Code    24  stm32f10x_systick.o(i.SysTick_ITConfig)
    SystemInit                               0x08003e45   Thumb Code    64  system_stm32f10x.o(i.SystemInit)
    TIM2_IRQHandler                          0x08003e95   Thumb Code   216  stm32f10x_it.o(i.TIM2_IRQHandler)
    TIM2_Init                                0x08003f9d   Thumb Code    76  main.o(i.TIM2_Init)
    TIM3_IRQHandler                          0x08003fe9   Thumb Code    60  stm32f10x_it.o(i.TIM3_IRQHandler)
    TIM3_Init                                0x08004031   Thumb Code    80  main.o(i.TIM3_Init)
    TIM4_IRQHandler                          0x08004085   Thumb Code    60  stm32f10x_it.o(i.TIM4_IRQHandler)
    TIM4_Init                                0x080040cd   Thumb Code    80  main.o(i.TIM4_Init)
    TIM5_IRQHandler                          0x08004121   Thumb Code    60  stm32f10x_it.o(i.TIM5_IRQHandler)
    TIM5_Init                                0x08004169   Thumb Code    80  main.o(i.TIM5_Init)
    TIM6_IRQHandler                          0x080041bd   Thumb Code    94  stm32f10x_it.o(i.TIM6_IRQHandler)
    TIM6_Init                                0x08004241   Thumb Code    72  main.o(i.TIM6_Init)
    TIM_ClearITPendingBit                    0x0800428d   Thumb Code     6  stm32f10x_tim.o(i.TIM_ClearITPendingBit)
    TIM_Cmd                                  0x08004293   Thumb Code    20  stm32f10x_tim.o(i.TIM_Cmd)
    TIM_GetITStatus                          0x080042a7   Thumb Code    22  stm32f10x_tim.o(i.TIM_GetITStatus)
    TIM_ITConfig                             0x080042bd   Thumb Code    16  stm32f10x_tim.o(i.TIM_ITConfig)
    TIM_TimeBaseInit                         0x080042cd   Thumb Code   114  stm32f10x_tim.o(i.TIM_TimeBaseInit)
    TouchPanel_Calibrate                     0x08004369   Thumb Code    52  touchpanel.o(i.TouchPanel_Calibrate)
    TurnOffPower                             0x080043ad   Thumb Code    68  main.o(i.TurnOffPower)
    TurnOnPower                              0x080043fd   Thumb Code   100  main.o(i.TurnOnPower)
    UI_DebugMain                             0x0800446d   Thumb Code  1294  ts100_draw.o(i.UI_DebugMain)
    UI_ProMode                               0x08004985   Thumb Code    74  main.o(i.UI_ProMode)
    UI_ProPower                              0x080049dd   Thumb Code    74  main.o(i.UI_ProPower)
    UI_ProRedLight_ShutdownTimer             0x08004a35   Thumb Code   136  main.o(i.UI_ProRedLight_ShutdownTimer)
    UI_ProRedraw                             0x08004ac5   Thumb Code   106  main.o(i.UI_ProRedraw)
    UI_ProWavelength                         0x08004b39   Thumb Code   106  main.o(i.UI_ProWavelength)
    UI_ProductionAdjust                      0x08004bb1   Thumb Code   788  main.o(i.UI_ProductionAdjust)
    USART_Cmd                                0x08004f1d   Thumb Code    20  stm32f10x_usart.o(i.USART_Cmd)
    USART_Configuration                      0x08004f31   Thumb Code    78  main.o(i.USART_Configuration)
    USART_DMACmd                             0x08004f85   Thumb Code    16  stm32f10x_usart.o(i.USART_DMACmd)
    USART_GetFlagStatus                      0x08004f95   Thumb Code    14  stm32f10x_usart.o(i.USART_GetFlagStatus)
    USART_Init                               0x08004fa5   Thumb Code   176  stm32f10x_usart.o(i.USART_Init)
    USART_SendData                           0x08005059   Thumb Code     8  stm32f10x_usart.o(i.USART_SendData)
    UsageFault_Handler                       0x08005061   Thumb Code     2  stm32f10x_it.o(i.UsageFault_Handler)
    WriteFlash                               0x08005063   Thumb Code    70  flash.o(i.WriteFlash)
    __0printf                                0x080050a9   Thumb Code    22  printfa.o(i.__0printf)
    __1printf                                0x080050a9   Thumb Code     0  printfa.o(i.__0printf)
    __2printf                                0x080050a9   Thumb Code     0  printfa.o(i.__0printf)
    __c89printf                              0x080050a9   Thumb Code     0  printfa.o(i.__0printf)
    printf                                   0x080050a9   Thumb Code     0  printfa.o(i.__0printf)
    __0sprintf                               0x080050c9   Thumb Code    34  printfa.o(i.__0sprintf)
    __1sprintf                               0x080050c9   Thumb Code     0  printfa.o(i.__0sprintf)
    __2sprintf                               0x080050c9   Thumb Code     0  printfa.o(i.__0sprintf)
    __c89sprintf                             0x080050c9   Thumb Code     0  printfa.o(i.__0sprintf)
    sprintf                                  0x080050c9   Thumb Code     0  printfa.o(i.__0sprintf)
    __ARM_fpclassify                         0x080050f1   Thumb Code    40  fpclassify.o(i.__ARM_fpclassify)
    __aeabi_errno_addr                       0x08005119   Thumb Code     4  errno.o(i.__aeabi_errno_addr)
    __rt_errno_addr                          0x08005119   Thumb Code     0  errno.o(i.__aeabi_errno_addr)
    __kernel_poly                            0x08005121   Thumb Code   170  poly.o(i.__kernel_poly)
    __mathlib_dbl_underflow                  0x080051cd   Thumb Code    10  dunder.o(i.__mathlib_dbl_underflow)
    __scatterload_copy                       0x080051dd   Thumb Code    14  handlers.o(i.__scatterload_copy)
    __scatterload_null                       0x080051eb   Thumb Code     2  handlers.o(i.__scatterload_null)
    __scatterload_zeroinit                   0x080051ed   Thumb Code    14  handlers.o(i.__scatterload_zeroinit)
    __set_errno                              0x080051fd   Thumb Code     6  errno.o(i.__set_errno)
    atof_                                    0x08005ac5   Thumb Code   230  base.o(i.atof_)
    delay_init                               0x08005bb9   Thumb Code    52  systick.o(i.delay_init)
    draw_arrow                               0x08005c11   Thumb Code    12  ui.o(i.draw_arrow)
    fputc                                    0x08005c1d   Thumb Code    30  usart.o(i.fputc)
    gl_clear                                 0x08005c41   Thumb Code    52  gl_ui.o(i.gl_clear)
    gl_fill_rect                             0x08005c79   Thumb Code   126  gl_ui.o(i.gl_fill_rect)
    gl_horizon_line                          0x08005d01   Thumb Code    36  gl_ui.o(i.gl_horizon_line)
    gl_key_exti                              0x08005d2d   Thumb Code    56  gl_key.o(i.gl_key_exti)
    gl_picture                               0x08005d6d   Thumb Code   526  gl_ui.o(i.gl_picture)
    gl_setarea                               0x08005f85   Thumb Code    16  gl_ui.o(i.gl_setarea)
    gl_setpoint                              0x08005f95   Thumb Code     6  gl_ui.o(i.gl_setpoint)
    gl_text                                  0x08005fa1   Thumb Code    92  gl_ui.o(i.gl_text)
    gl_ui_setbkcolor                         0x08006005   Thumb Code    10  gl_ui.o(i.gl_ui_setbkcolor)
    gl_ui_setbkmode                          0x08006015   Thumb Code    10  gl_ui.o(i.gl_ui_setbkmode)
    gl_ui_setbrushcolor                      0x08006025   Thumb Code    10  gl_ui.o(i.gl_ui_setbrushcolor)
    gl_ui_setfontcolor                       0x08006035   Thumb Code    10  gl_ui.o(i.gl_ui_setfontcolor)
    gl_ui_setlib                             0x08006045   Thumb Code    66  gl_ui.o(i.gl_ui_setlib)
    gl_ui_setpencolor                        0x08006091   Thumb Code    10  gl_ui.o(i.gl_ui_setpencolor)
    gl_vertical_line                         0x080060a1   Thumb Code    34  gl_ui.o(i.gl_vertical_line)
    main                                     0x080060cd   Thumb Code   236  main.o(i.main)
    pow                                      0x08006209   Thumb Code  2522  pow.o(i.pow)
    setCalibrationMatrix                     0x08006bf5   Thumb Code   324  touchpanel.o(i.setCalibrationMatrix)
    sqrt                                     0x08006d39   Thumb Code    76  sqrt.o(i.sqrt)
    gImage_logo                              0x08006d84   Data       27702  picturedata.o(.constdata)
    gImage_dbm                               0x0800d9ba   Data        4158  picturedata.o(.constdata)
    gImage_battery_0_4                       0x0800e9f8   Data        4928  picturedata.o(.constdata)
    gImage_battery_1_4                       0x0800fd38   Data        4928  picturedata.o(.constdata)
    gImage_battery_2_4                       0x08011078   Data        4928  picturedata.o(.constdata)
    gImage_battery_3_4                       0x080123b8   Data        4928  picturedata.o(.constdata)
    gImage_battery_4_4                       0x080136f8   Data        4928  picturedata.o(.constdata)
    gImage_battery_ac                        0x08014a38   Data        4928  picturedata.o(.constdata)
    gImage_redlight_off                      0x08015d78   Data        5456  picturedata.o(.constdata)
    gImage_redlight_on                       0x080172c8   Data        5456  picturedata.o(.constdata)
    gImage_t_10min                           0x08018818   Data        6776  picturedata.o(.constdata)
    gImage_t_off                             0x0801a290   Data        6776  picturedata.o(.constdata)
    zm_a_z_st9_8_12                          0x0801bd08   Data         312  zimo_st9.o(.constdata)
    zm_A_Z_st9_8_12                          0x0801be40   Data         312  zimo_st9.o(.constdata)
    zm_0_9_st9_8_12                          0x0801bf78   Data         120  zimo_st9.o(.constdata)
    zm_sign_st9_8_12                         0x0801bff0   Data          24  zimo_st9.o(.constdata)
    zm_sign_space_st9_8_12                   0x0801c008   Data          12  zimo_st9.o(.constdata)
    zm_sign_colon_st9_8_12                   0x0801c014   Data          12  zimo_st9.o(.constdata)
    __mathlib_zero                           0x0801c490   Data           8  qnan.o(.constdata)
    __ctype_table                            0x0801c498   Data         129  ctype_o.o(.constdata)
    Region$$Table$$Base                      0x0801c590   Number         0  anon$$obj.o(Region$$Table)
    Region$$Table$$Limit                     0x0801c5b0   Number         0  anon$$obj.o(Region$$Table)
    Num_fuhao                                0x20000000   Data         224  picturedata.o(.data)
    Num_0                                    0x200000e0   Data         224  picturedata.o(.data)
    Num_1                                    0x200001c0   Data         224  picturedata.o(.data)
    Num_2                                    0x200002a0   Data         224  picturedata.o(.data)
    Num_3                                    0x20000380   Data         224  picturedata.o(.data)
    Num_4                                    0x20000460   Data         224  picturedata.o(.data)
    Num_5                                    0x20000540   Data         224  picturedata.o(.data)
    Num_6                                    0x20000620   Data         224  picturedata.o(.data)
    Num_7                                    0x20000700   Data         224  picturedata.o(.data)
    Num_8                                    0x200007e0   Data         224  picturedata.o(.data)
    Num_9                                    0x200008c0   Data         224  picturedata.o(.data)
    Num_00                                   0x200009a0   Data          58  picturedata.o(.data)
    Num_01                                   0x200009da   Data          58  picturedata.o(.data)
    Num_02                                   0x20000a14   Data          58  picturedata.o(.data)
    Num_03                                   0x20000a4e   Data          58  picturedata.o(.data)
    Num_04                                   0x20000a88   Data          58  picturedata.o(.data)
    Num_05                                   0x20000ac2   Data          58  picturedata.o(.data)
    Num_07                                   0x20000afc   Data          58  picturedata.o(.data)
    Num_09                                   0x20000b36   Data          58  picturedata.o(.data)
    Num_0dian                                0x20000b70   Data          58  picturedata.o(.data)
    Num_0H                                   0x20000baa   Data          58  picturedata.o(.data)
    Num_0z                                   0x20000be4   Data          58  picturedata.o(.data)
    Num_0K                                   0x20000c1e   Data          58  picturedata.o(.data)
    Num_0n                                   0x20000c58   Data          58  picturedata.o(.data)
    Num_0m                                   0x20000c92   Data          58  picturedata.o(.data)
    Num_0C                                   0x20000ccc   Data          58  picturedata.o(.data)
    Num_0W                                   0x20000d06   Data          58  picturedata.o(.data)
    p_zm_ascii_st9                           0x20000d50   Data         512  zimo_st9.o(.data)
    p_zm_step_st9                            0x20000f50   Data         128  zimo_st9.o(.data)
    g_delay_ms                               0x20000fd2   Data           2  key.o(.data)
    g_red_onoff                              0x20000fe0   Data           1  main.o(.data)
    g_red_mode                               0x20000fe1   Data           1  main.o(.data)
    g_autoctrlpower_en                       0x20000fe2   Data           1  main.o(.data)
    g_key_timer_100ms                        0x20000fe3   Data           1  main.o(.data)
    powerDownDelayCnt                        0x20000fe6   Data           2  main.o(.data)
    g_batter_delay                           0x20000fe8   Data           2  main.o(.data)
    g_power_down                             0x20000fea   Data           2  main.o(.data)
    g_adjust_ms                              0x20000fec   Data           2  main.o(.data)
    g_usart_ms                               0x20000fee   Data           2  main.o(.data)
    g_lcdlisten_ms                           0x20000ff0   Data           2  main.o(.data)
    Timer_State                              0x20000ff2   Data           2  main.o(.data)
    Timer_Counter                            0x20000ff4   Data           2  main.o(.data)
    Wavelength_Selection_state               0x20000ff6   Data           2  main.o(.data)
    Operating_Mode                           0x20000ff8   Data           2  main.o(.data)
    TIM_Period1310                           0x20000ffa   Data           2  main.o(.data)
    TIM_Period1490                           0x20000ffc   Data           2  main.o(.data)
    TIM_Period1550                           0x20000ffe   Data           2  main.o(.data)
    hackval                                  0x2000100c   Data           4  main.o(.data)
    hackflag                                 0x20001010   Data           4  main.o(.data)
    restarttimes                             0x20001014   Data           4  main.o(.data)
    TIM_Period                               0x20001018   Data           6  main.o(.data)
    c10_10_0                                 0x20001020   Data          40  main.o(.data)
    c10_0_001                                0x20001048   Data          40  main.o(.data)
    c10_0_01                                 0x20001070   Data          40  main.o(.data)
    c10_0_1                                  0x20001098   Data          40  main.o(.data)
    g_red_delay_100ms                        0x200010c0   Data           1  main.o(.data)
    g_onoff_en                               0x200010c1   Data           1  main.o(.data)
    g_ad_ms                                  0x200010c2   Data           2  main.o(.data)
    g_lcdbug_ms                              0x200010c4   Data           2  main.o(.data)
    g_debug_ms                               0x200010c6   Data           2  main.o(.data)
    g_recvflag                               0x200010c8   Data           1  main.o(.data)
    SysTickCounter                           0x200010ca   Data           2  main.o(.data)
    LCD_GetPoint_EN                          0x200010cc   Data           1  main.o(.data)
    LCD_GetPoint_Counter                     0x200010cd   Data           1  main.o(.data)
    FLAG_1310                                0x200010ce   Data           1  main.o(.data)
    FLAG_1490                                0x200010cf   Data           1  main.o(.data)
    FLAG_1550                                0x200010d0   Data           1  main.o(.data)
    X                                        0x200010d2   Data           6  main.o(.data)
    Y                                        0x200010d8   Data           6  main.o(.data)
    msgindex                                 0x200010e0   Data           1  gl_key.o(.data)
    _key_ms                                  0x200010e4   Data           4  gl_key.o(.data)
    _key_ms_out                              0x200010e8   Data           4  gl_key.o(.data)
    DisplaySample                            0x2000111e   Data          12  touchpanel.o(.data)
    __stdout                                 0x2000112c   Data           4  stdout.o(.data)
    _zm_ascii                                0x20001134   Data         512  gl_ui.o(.bss)
    g_power                                  0x20001680   Data          24  main.o(.bss)
    g_adj_power                              0x20001698   Data          36  main.o(.bss)
    g_adc                                    0x200016bc   Data         400  main.o(.bss)
    ADCConvertedValue                        0x2000184c   Data        4000  main.o(.bss)
    strout                                   0x200027ec   Data          50  main.o(.bss)
    _key                                     0x20002820   Data         160  gl_key.o(.bss)
    com_2buf                                 0x200028c0   Data         540  usart.o(.bss)
    matrix                                   0x20002c00   Data          56  touchpanel.o(.bss)
    ScreenSample                             0x20002c38   Data          12  touchpanel.o(.bss)
    __initial_sp                             0x20003048   Data           0  startup_stm32f10x_hd.o(STACK)



==============================================================================

Memory Map of the image

  Image Entry point : 0x08000131

  Load Region LR_IROM1 (Base: 0x08000000, Size: 0x0001d6e4, Max: 0x0003f800, ABSOLUTE, COMPRESSED[0x0001cc64])

    Execution Region ER_IROM1 (Base: 0x08000000, Size: 0x0001c5b0, Max: 0x0003f800, ABSOLUTE)

    Base Addr    Size         Type   Attr      Idx    E Section Name        Object

    0x08000000   0x00000130   Data   RO         3516    RESET               startup_stm32f10x_hd.o
    0x08000130   0x00000000   Code   RO         3940  * .ARM.Collect$$$$00000000  mc_w.l(entry.o)
    0x08000130   0x00000004   Code   RO         4263    .ARM.Collect$$$$00000001  mc_w.l(entry2.o)
    0x08000134   0x00000004   Code   RO         4266    .ARM.Collect$$$$00000004  mc_w.l(entry5.o)
    0x08000138   0x00000000   Code   RO         4268    .ARM.Collect$$$$00000008  mc_w.l(entry7b.o)
    0x08000138   0x00000008   Code   RO         4269    .ARM.Collect$$$$00000009  mc_w.l(entry8.o)
    0x08000140   0x00000004   Code   RO         4264    .ARM.Collect$$$$00002712  mc_w.l(entry2.o)
    0x08000144   0x00000024   Code   RO         3517    .text               startup_stm32f10x_hd.o
    0x08000168   0x00000024   Code   RO         3943    .text               mc_w.l(memcpya.o)
    0x0800018c   0x00000026   Code   RO         3945    .text               mc_w.l(memseta.o)
    0x080001b2   0x0000001a   Code   RO         4210    .text               mc_w.l(atoi.o)
    0x080001cc   0x000000b0   Code   RO         4212    .text               mf_w.l(fadd.o)
    0x0800027c   0x0000006c   Code   RO         4214    .text               mf_w.l(fmul.o)
    0x080002e8   0x00000080   Code   RO         4216    .text               mf_w.l(fdiv.o)
    0x08000368   0x0000014c   Code   RO         4218    .text               mf_w.l(dadd.o)
    0x080004b4   0x000000e0   Code   RO         4220    .text               mf_w.l(dmul.o)
    0x08000594   0x000000de   Code   RO         4222    .text               mf_w.l(ddiv.o)
    0x08000672   0x0000002e   Code   RO         4224    .text               mf_w.l(dscalb.o)
    0x080006a0   0x00000012   Code   RO         4226    .text               mf_w.l(fflti.o)
    0x080006b2   0x0000000a   Code   RO         4228    .text               mf_w.l(ffltui.o)
    0x080006bc   0x00000022   Code   RO         4230    .text               mf_w.l(dflti.o)
    0x080006de   0x0000001a   Code   RO         4232    .text               mf_w.l(dfltui.o)
    0x080006f8   0x00000032   Code   RO         4234    .text               mf_w.l(ffixi.o)
    0x0800072a   0x00000028   Code   RO         4236    .text               mf_w.l(ffixui.o)
    0x08000752   0x0000003e   Code   RO         4238    .text               mf_w.l(dfixi.o)
    0x08000790   0x0000002e   Code   RO         4240    .text               mf_w.l(dfixui.o)
    0x080007be   0x0000002c   Code   RO         4242    .text               mf_w.l(f2d.o)
    0x080007ea   0x00000002   PAD
    0x080007ec   0x00000028   Code   RO         4244    .text               mf_w.l(cdcmple.o)
    0x08000814   0x00000038   Code   RO         4246    .text               mf_w.l(d2f.o)
    0x0800084c   0x0000002c   Code   RO         4271    .text               mc_w.l(uidiv.o)
    0x08000878   0x00000062   Code   RO         4273    .text               mc_w.l(uldiv.o)
    0x080008da   0x0000001e   Code   RO         4275    .text               mc_w.l(llshl.o)
    0x080008f8   0x00000020   Code   RO         4277    .text               mc_w.l(llushr.o)
    0x08000918   0x00000024   Code   RO         4279    .text               mc_w.l(llsshr.o)
    0x0800093c   0x00000070   Code   RO         4288    .text               mc_w.l(strtol.o)
    0x080009ac   0x00000000   Code   RO         4290    .text               mc_w.l(iusefp.o)
    0x080009ac   0x0000006c   Code   RO         4291    .text               mf_w.l(fepilogue.o)
    0x08000a18   0x000000be   Code   RO         4293    .text               mf_w.l(depilogue.o)
    0x08000ad6   0x00000030   Code   RO         4295    .text               mf_w.l(dfixul.o)
    0x08000b06   0x00000002   PAD
    0x08000b08   0x00000028   Code   RO         4297    .text               mf_w.l(cdrcmple.o)
    0x08000b30   0x00000024   Code   RO         4299    .text               mc_w.l(init.o)
    0x08000b54   0x00000008   Code   RO         4301    .text               mc_w.l(ctype_o.o)
    0x08000b5c   0x0000009e   Code   RO         4329    .text               mc_w.l(_strtoul.o)
    0x08000bfa   0x000000a2   Code   RO         4331    .text               mf_w.l(dsqrt.o)
    0x08000c9c   0x0000001c   Code   RO         4333    .text               mc_w.l(_chval.o)
    0x08000cb8   0x0000005c   Code   RO         4343    .text               mc_w.l(__dczerorl2.o)
    0x08000d14   0x00000002   Code   RO          716    i.ADC1_2_IRQHandler  stm32f10x_it.o
    0x08000d16   0x00000014   Code   RO         2995    i.ADC_Cmd           stm32f10x_adc.o
    0x08000d2a   0x00000002   PAD
    0x08000d2c   0x000000dc   Code   RO          321    i.ADC_Configuration  main.o
    0x08000e08   0x00000014   Code   RO         2996    i.ADC_DMACmd        stm32f10x_adc.o
    0x08000e1c   0x0000000e   Code   RO         3003    i.ADC_GetCalibrationStatus  stm32f10x_adc.o
    0x08000e2a   0x0000000e   Code   RO         3009    i.ADC_GetResetCalibrationStatus  stm32f10x_adc.o
    0x08000e38   0x00000048   Code   RO         3013    i.ADC_Init          stm32f10x_adc.o
    0x08000e80   0x00000074   Code   RO         3017    i.ADC_RegularChannelConfig  stm32f10x_adc.o
    0x08000ef4   0x0000000a   Code   RO         3018    i.ADC_ResetCalibration  stm32f10x_adc.o
    0x08000efe   0x00000014   Code   RO         3020    i.ADC_SoftwareStartConvCmd  stm32f10x_adc.o
    0x08000f12   0x0000000a   Code   RO         3022    i.ADC_StartCalibration  stm32f10x_adc.o
    0x08000f1c   0x000000ec   Code   RO          322    i.AutoCtrlPower     main.o
    0x08001008   0x00000002   Code   RO          717    i.BusFault_Handler  stm32f10x_it.o
    0x0800100a   0x00000002   PAD
    0x0800100c   0x000000e4   Code   RO          323    i.Check1963         main.o
    0x080010f0   0x00000098   Code   RO          324    i.CheckLCD          main.o
    0x08001188   0x00000134   Code   RO          937    i.CommDMAMode       usart.o
    0x080012bc   0x0000018c   Code   RO          939    i.CommInit          usart.o
    0x08001448   0x00000040   Code   RO          941    i.CommRecv          usart.o
    0x08001488   0x00000044   Code   RO          943    i.CommTurnBuffer    usart.o
    0x080014cc   0x000002a0   Code   RO          325    i.Ctrl_Operating_Mode  main.o
    0x0800176c   0x000001e4   Code   RO          326    i.Ctrl_Power        main.o
    0x08001950   0x00000018   Code   RO          327    i.Ctrl_RedLight     main.o
    0x08001968   0x0000003c   Code   RO          328    i.Ctrl_Timing_Device  main.o
    0x080019a4   0x000000bc   Code   RO          329    i.Ctrl_Wavelength   main.o
    0x08001a60   0x00000018   Code   RO         3211    i.DAC_Cmd           stm32f10x_dac.o
    0x08001a78   0x0000002c   Code   RO          330    i.DAC_Configuration  main.o
    0x08001aa4   0x00000028   Code   RO         3216    i.DAC_Init          stm32f10x_dac.o
    0x08001acc   0x0000000c   Code   RO         3217    i.DAC_SetChannel1Data  stm32f10x_dac.o
    0x08001ad8   0x0000001c   Code   RO         3220    i.DAC_SoftwareTriggerCmd  stm32f10x_dac.o
    0x08001af4   0x00000018   Code   RO          718    i.DMA1_Channel2_IRQHandler  stm32f10x_it.o
    0x08001b0c   0x00000038   Code   RO          719    i.DMA1_Channel3_IRQHandler  stm32f10x_it.o
    0x08001b44   0x0000001c   Code   RO          720    i.DMA1_Channel4_IRQHandler  stm32f10x_it.o
    0x08001b60   0x00000038   Code   RO          721    i.DMA1_Channel5_IRQHandler  stm32f10x_it.o
    0x08001b98   0x00000038   Code   RO          722    i.DMA1_Channel6_IRQHandler  stm32f10x_it.o
    0x08001bd0   0x0000001c   Code   RO          723    i.DMA1_Channel7_IRQHandler  stm32f10x_it.o
    0x08001bec   0x00000018   Code   RO         2183    i.DMA_ClearFlag     stm32f10x_dma.o
    0x08001c04   0x00000018   Code   RO         2184    i.DMA_ClearITPendingBit  stm32f10x_dma.o
    0x08001c1c   0x00000016   Code   RO         2185    i.DMA_Cmd           stm32f10x_dma.o
    0x08001c32   0x00000002   PAD
    0x08001c34   0x000000e4   Code   RO         2186    i.DMA_DeInit        stm32f10x_dma.o
    0x08001d18   0x00000020   Code   RO         2188    i.DMA_GetFlagStatus  stm32f10x_dma.o
    0x08001d38   0x00000020   Code   RO         2189    i.DMA_GetITStatus   stm32f10x_dma.o
    0x08001d58   0x00000010   Code   RO         2190    i.DMA_ITConfig      stm32f10x_dma.o
    0x08001d68   0x0000003a   Code   RO         2191    i.DMA_Init          stm32f10x_dma.o
    0x08001da2   0x00000002   Code   RO          724    i.DebugMon_Handler  stm32f10x_it.o
    0x08001da4   0x00000010   Code   RO          284    i.Delay_ms          key.o
    0x08001db4   0x00000038   Code   RO          334    i.DrawFocus         main.o
    0x08001dec   0x0000001e   Code   RO          725    i.EXTI1_IRQHandler  stm32f10x_it.o
    0x08001e0a   0x0000001e   Code   RO          726    i.EXTI2_IRQHandler  stm32f10x_it.o
    0x08001e28   0x0000001e   Code   RO          727    i.EXTI3_IRQHandler  stm32f10x_it.o
    0x08001e46   0x00000046   Code   RO          728    i.EXTI9_5_IRQHandler  stm32f10x_it.o
    0x08001e8c   0x0000000c   Code   RO         1494    i.EXTI_ClearITPendingBit  stm32f10x_exti.o
    0x08001e98   0x00000020   Code   RO         1498    i.EXTI_GetITStatus  stm32f10x_exti.o
    0x08001eb8   0x0000000c   Code   RO         3289    i.FLASH_ClearFlag   stm32f10x_flash.o
    0x08001ec4   0x0000017c   Code   RO          338    i.FLASH_Configuration  main.o
    0x08002040   0x0000003c   Code   RO         3294    i.FLASH_ErasePage   stm32f10x_flash.o
    0x0800207c   0x00000028   Code   RO         3295    i.FLASH_GetBank1Status  stm32f10x_flash.o
    0x080020a4   0x00000010   Code   RO         3304    i.FLASH_Lock        stm32f10x_flash.o
    0x080020b4   0x00000048   Code   RO         3309    i.FLASH_ProgramWord  stm32f10x_flash.o
    0x080020fc   0x00000018   Code   RO         3312    i.FLASH_Unlock      stm32f10x_flash.o
    0x08002114   0x00000024   Code   RO         3316    i.FLASH_WaitForLastOperation  stm32f10x_flash.o
    0x08002138   0x00000020   Code   RO         1705    i.FSMC_NORSRAMCmd   stm32f10x_fsmc.o
    0x08002158   0x000000c0   Code   RO         1707    i.FSMC_NORSRAMInit  stm32f10x_fsmc.o
    0x08002218   0x000000dc   Code   RO          339    i.Function_IO_config  main.o
    0x080022f4   0x000000a4   Code   RO         1349    i.GPIO_Init         stm32f10x_gpio.o
    0x08002398   0x00000058   Code   RO         1351    i.GPIO_PinRemapConfig  stm32f10x_gpio.o
    0x080023f0   0x0000000e   Code   RO         1353    i.GPIO_ReadInputDataBit  stm32f10x_gpio.o
    0x080023fe   0x00000004   Code   RO         1356    i.GPIO_ResetBits    stm32f10x_gpio.o
    0x08002402   0x00000004   Code   RO         1357    i.GPIO_SetBits      stm32f10x_gpio.o
    0x08002406   0x00000002   PAD
    0x08002408   0x00000048   Code   RO         3522    i.GUI_Text          glcd.o
    0x08002450   0x00000054   Code   RO          340    i.GetAD             main.o
    0x080024a4   0x00000002   Code   RO          729    i.HardFault_Handler  stm32f10x_it.o
    0x080024a6   0x00000002   PAD
    0x080024a8   0x000002b4   Code   RO         1016    i.InputPanel        ts100_draw.o
    0x0800275c   0x0000004c   Code   RO          341    i.IsHacker          main.o
    0x080027a8   0x00000064   Code   RO          285    i.KeyDown           key.o
    0x0800280c   0x00000028   Code   RO          286    i.KeyDown_Ex        key.o
    0x08002834   0x0000006c   Code   RO          287    i.KeyPress          key.o
    0x080028a0   0x00000058   Code   RO         1017    i.LCD_Batter_Show   ts100_draw.o
    0x080028f8   0x00000030   Code   RO         3525    i.LCD_Clear         glcd.o
    0x08002928   0x0000000e   Code   RO         3526    i.LCD_Configuration  glcd.o
    0x08002936   0x00000002   PAD
    0x08002938   0x000000bc   Code   RO         3527    i.LCD_CtrlLinesConfig  glcd.o
    0x080029f4   0x000000b8   Code   RO          342    i.LCD_DrawMain      main.o
    0x08002aac   0x00000098   Code   RO         1018    i.LCD_FLSAH_DrawPicture  ts100_draw.o
    0x08002b44   0x00000064   Code   RO         3530    i.LCD_FSMCConfig    glcd.o
    0x08002ba8   0x0000001c   Code   RO         3531    i.LCD_GetPoint      glcd.o
    0x08002bc4   0x000001c8   Code   RO         3532    i.LCD_Initializtion  glcd.o
    0x08002d8c   0x000001f4   Code   RO         1020    i.LCD_OperatMode_Selection  ts100_draw.o
    0x08002f80   0x000000c0   Code   RO         1021    i.LCD_Power_Control_Selection_Ex  ts100_draw.o
    0x08003040   0x00000014   Code   RO         3534    i.LCD_ReadReg       glcd.o
    0x08003054   0x00000024   Code   RO         1022    i.LCD_RedLight_Show  ts100_draw.o
    0x08003078   0x00000030   Code   RO          159    i.LCD_SetArea       gl_ui.o
    0x080030a8   0x00000024   Code   RO         3536    i.LCD_SetBacklight  glcd.o
    0x080030cc   0x00000028   Code   RO         3537    i.LCD_SetPoint      glcd.o
    0x080030f4   0x0000007c   Code   RO         1023    i.LCD_Timing_Display  ts100_draw.o
    0x08003170   0x00000160   Code   RO         1025    i.LCD_Wavelength_Selection_Ex  ts100_draw.o
    0x080032d0   0x00000002   Code   RO          730    i.MemManage_Handler  stm32f10x_it.o
    0x080032d2   0x00000002   Code   RO          731    i.NMI_Handler       stm32f10x_it.o
    0x080032d4   0x0000008a   Code   RO          343    i.NVIC_Configuration  main.o
    0x0800335e   0x00000002   PAD
    0x08003360   0x00000064   Code   RO         1457    i.NVIC_Init         misc.o
    0x080033c4   0x00000014   Code   RO         1458    i.NVIC_PriorityGroupConfig  misc.o
    0x080033d8   0x00000014   Code   RO         1459    i.NVIC_SetVectorTable  misc.o
    0x080033ec   0x00000002   Code   RO          732    i.PendSV_Handler    stm32f10x_it.o
    0x080033ee   0x00000002   PAD
    0x080033f0   0x000001ec   Code   RO          344    i.ProChargerMonitor  main.o
    0x080035dc   0x00000404   Code   RO          345    i.ProGet1963State   main.o
    0x080039e0   0x00000044   Code   RO          346    i.ProTick1963IsLive  main.o
    0x08003a24   0x0000006c   Code   RO          347    i.ProTimerShutdown  main.o
    0x08003a90   0x0000004e   Code   RO         3542    i.PutChar           glcd.o
    0x08003ade   0x00000002   PAD
    0x08003ae0   0x00000018   Code   RO         1144    i.RCC_AHBPeriphClockCmd  stm32f10x_rcc.o
    0x08003af8   0x00000018   Code   RO         1145    i.RCC_APB1PeriphClockCmd  stm32f10x_rcc.o
    0x08003b10   0x00000018   Code   RO         1147    i.RCC_APB2PeriphClockCmd  stm32f10x_rcc.o
    0x08003b28   0x0000009c   Code   RO         1155    i.RCC_GetClocksFreq  stm32f10x_rcc.o
    0x08003bc4   0x00000026   Code   RO          252    i.ReadFlash         flash.o
    0x08003bea   0x00000002   PAD
    0x08003bec   0x00000028   Code   RO         3547    i.SSD1963_GPIO_WR   glcd.o
    0x08003c14   0x00000020   Code   RO         3548    i.SSD1963_IsRestart  glcd.o
    0x08003c34   0x00000064   Code   RO         3549    i.SSD1963_PowerUp   glcd.o
    0x08003c98   0x00000034   Code   RO         3550    i.SSD1963_SPI_Write  glcd.o
    0x08003ccc   0x0000002a   Code   RO         3551    i.SSD1963_SPI_WriteReg  glcd.o
    0x08003cf6   0x00000002   PAD
    0x08003cf8   0x00000018   Code   RO         3552    i.SSD1963_SetCheckFlag  glcd.o
    0x08003d10   0x00000002   Code   RO          733    i.SVC_Handler       stm32f10x_it.o
    0x08003d12   0x00000002   PAD
    0x08003d14   0x00000094   Code   RO         3461    i.SetSysClockTo72   system_stm32f10x.o
    0x08003da8   0x0000006a   Code   RO         1026    i.Show_Matrix_zimo  ts100_draw.o
    0x08003e12   0x00000018   Code   RO         1461    i.SysTick_CLKSourceConfig  misc.o
    0x08003e2a   0x00000018   Code   RO         3766    i.SysTick_ITConfig  stm32f10x_systick.o
    0x08003e42   0x00000002   PAD
    0x08003e44   0x00000050   Code   RO         3463    i.SystemInit        system_stm32f10x.o
    0x08003e94   0x00000108   Code   RO          734    i.TIM2_IRQHandler   stm32f10x_it.o
    0x08003f9c   0x0000004c   Code   RO          349    i.TIM2_Init         main.o
    0x08003fe8   0x00000048   Code   RO          735    i.TIM3_IRQHandler   stm32f10x_it.o
    0x08004030   0x00000054   Code   RO          350    i.TIM3_Init         main.o
    0x08004084   0x00000048   Code   RO          736    i.TIM4_IRQHandler   stm32f10x_it.o
    0x080040cc   0x00000054   Code   RO          351    i.TIM4_Init         main.o
    0x08004120   0x00000048   Code   RO          737    i.TIM5_IRQHandler   stm32f10x_it.o
    0x08004168   0x00000054   Code   RO          352    i.TIM5_Init         main.o
    0x080041bc   0x00000084   Code   RO          738    i.TIM6_IRQHandler   stm32f10x_it.o
    0x08004240   0x0000004c   Code   RO          353    i.TIM6_Init         main.o
    0x0800428c   0x00000006   Code   RO         2465    i.TIM_ClearITPendingBit  stm32f10x_tim.o
    0x08004292   0x00000014   Code   RO         2470    i.TIM_Cmd           stm32f10x_tim.o
    0x080042a6   0x00000016   Code   RO         2491    i.TIM_GetITStatus   stm32f10x_tim.o
    0x080042bc   0x00000010   Code   RO         2495    i.TIM_ITConfig      stm32f10x_tim.o
    0x080042cc   0x0000009c   Code   RO         2541    i.TIM_TimeBaseInit  stm32f10x_tim.o
    0x08004368   0x00000044   Code   RO         3840    i.TouchPanel_Calibrate  touchpanel.o
    0x080043ac   0x00000050   Code   RO          354    i.TurnOffPower      main.o
    0x080043fc   0x00000070   Code   RO          355    i.TurnOnPower       main.o
    0x0800446c   0x00000518   Code   RO         1027    i.UI_DebugMain      ts100_draw.o
    0x08004984   0x00000058   Code   RO          356    i.UI_ProMode        main.o
    0x080049dc   0x00000058   Code   RO          357    i.UI_ProPower       main.o
    0x08004a34   0x00000090   Code   RO          358    i.UI_ProRedLight_ShutdownTimer  main.o
    0x08004ac4   0x00000074   Code   RO          359    i.UI_ProRedraw      main.o
    0x08004b38   0x00000078   Code   RO          360    i.UI_ProWavelength  main.o
    0x08004bb0   0x0000036c   Code   RO          361    i.UI_ProductionAdjust  main.o
    0x08004f1c   0x00000014   Code   RO         1818    i.USART_Cmd         stm32f10x_usart.o
    0x08004f30   0x00000054   Code   RO          362    i.USART_Configuration  main.o
    0x08004f84   0x00000010   Code   RO         1819    i.USART_DMACmd      stm32f10x_usart.o
    0x08004f94   0x0000000e   Code   RO         1821    i.USART_GetFlagStatus  stm32f10x_usart.o
    0x08004fa2   0x00000002   PAD
    0x08004fa4   0x000000b4   Code   RO         1825    i.USART_Init        stm32f10x_usart.o
    0x08005058   0x00000008   Code   RO         1835    i.USART_SendData    stm32f10x_usart.o
    0x08005060   0x00000002   Code   RO          739    i.UsageFault_Handler  stm32f10x_it.o
    0x08005062   0x00000046   Code   RO          253    i.WriteFlash        flash.o
    0x080050a8   0x00000020   Code   RO         4182    i.__0printf         mc_w.l(printfa.o)
    0x080050c8   0x00000028   Code   RO         4184    i.__0sprintf        mc_w.l(printfa.o)
    0x080050f0   0x00000028   Code   RO         4250    i.__ARM_fpclassify  m_ws.l(fpclassify.o)
    0x08005118   0x00000008   Code   RO         4281    i.__aeabi_errno_addr  mc_w.l(errno.o)
    0x08005120   0x000000aa   Code   RO         4252    i.__kernel_poly     m_ws.l(poly.o)
    0x080051ca   0x00000002   PAD
    0x080051cc   0x00000010   Code   RO         4248    i.__mathlib_dbl_underflow  m_ws.l(dunder.o)
    0x080051dc   0x0000000e   Code   RO         4337    i.__scatterload_copy  mc_w.l(handlers.o)
    0x080051ea   0x00000002   Code   RO         4338    i.__scatterload_null  mc_w.l(handlers.o)
    0x080051ec   0x0000000e   Code   RO         4339    i.__scatterload_zeroinit  mc_w.l(handlers.o)
    0x080051fa   0x00000002   PAD
    0x080051fc   0x0000000c   Code   RO         4283    i.__set_errno       mc_w.l(errno.o)
    0x08005208   0x00000158   Code   RO         4189    i._fp_digits        mc_w.l(printfa.o)
    0x08005360   0x00000704   Code   RO         4190    i._printf_core      mc_w.l(printfa.o)
    0x08005a64   0x00000026   Code   RO         4191    i._printf_post_padding  mc_w.l(printfa.o)
    0x08005a8a   0x00000030   Code   RO         4192    i._printf_pre_padding  mc_w.l(printfa.o)
    0x08005aba   0x0000000a   Code   RO         4194    i._sputc            mc_w.l(printfa.o)
    0x08005ac4   0x000000f4   Code   RO         1131    i.atof_             base.o
    0x08005bb8   0x0000003c   Code   RO         3802    i.delay_init        systick.o
    0x08005bf4   0x0000001c   Code   RO         3553    i.delay_ms          glcd.o
    0x08005c10   0x0000000c   Code   RO         3736    i.draw_arrow        ui.o
    0x08005c1c   0x00000024   Code   RO          944    i.fputc             usart.o
    0x08005c40   0x00000038   Code   RO           56    i.gl_clear          gl_ui.o
    0x08005c78   0x00000088   Code   RO           57    i.gl_fill_rect      gl_ui.o
    0x08005d00   0x0000002c   Code   RO           58    i.gl_horizon_line   gl_ui.o
    0x08005d2c   0x00000040   Code   RO          891    i.gl_key_exti       gl_key.o
    0x08005d6c   0x00000218   Code   RO           59    i.gl_picture        gl_ui.o
    0x08005f84   0x00000010   Code   RO           61    i.gl_setarea        gl_ui.o
    0x08005f94   0x0000000c   Code   RO           62    i.gl_setpoint       gl_ui.o
    0x08005fa0   0x00000064   Code   RO           63    i.gl_text           gl_ui.o
    0x08006004   0x00000010   Code   RO           65    i.gl_ui_setbkcolor  gl_ui.o
    0x08006014   0x00000010   Code   RO           66    i.gl_ui_setbkmode   gl_ui.o
    0x08006024   0x00000010   Code   RO           67    i.gl_ui_setbrushcolor  gl_ui.o
    0x08006034   0x00000010   Code   RO           68    i.gl_ui_setfontcolor  gl_ui.o
    0x08006044   0x0000004c   Code   RO           69    i.gl_ui_setlib      gl_ui.o
    0x08006090   0x00000010   Code   RO           70    i.gl_ui_setpencolor  gl_ui.o
    0x080060a0   0x0000002c   Code   RO           71    i.gl_vertical_line  gl_ui.o
    0x080060cc   0x0000013c   Code   RO          365    i.main              main.o
    0x08006208   0x000009ec   Code   RO         3931    i.pow               m_ws.l(pow.o)
    0x08006bf4   0x00000144   Code   RO         3843    i.setCalibrationMatrix  touchpanel.o
    0x08006d38   0x0000004c   Code   RO         4256    i.sqrt              m_ws.l(sqrt.o)
    0x08006d84   0x00006c36   Data   RO            1    .constdata          picturedata.o
    0x0800d9ba   0x0000103e   Data   RO            2    .constdata          picturedata.o
    0x0800e9f8   0x00001340   Data   RO            3    .constdata          picturedata.o
    0x0800fd38   0x00001340   Data   RO            4    .constdata          picturedata.o
    0x08011078   0x00001340   Data   RO            5    .constdata          picturedata.o
    0x080123b8   0x00001340   Data   RO            6    .constdata          picturedata.o
    0x080136f8   0x00001340   Data   RO            7    .constdata          picturedata.o
    0x08014a38   0x00001340   Data   RO            8    .constdata          picturedata.o
    0x08015d78   0x00001550   Data   RO            9    .constdata          picturedata.o
    0x080172c8   0x00001550   Data   RO           10    .constdata          picturedata.o
    0x08018818   0x00001a78   Data   RO           11    .constdata          picturedata.o
    0x0801a290   0x00001a78   Data   RO           12    .constdata          picturedata.o
    0x0801bd08   0x00000138   Data   RO          235    .constdata          zimo_st9.o
    0x0801be40   0x00000138   Data   RO          236    .constdata          zimo_st9.o
    0x0801bf78   0x00000078   Data   RO          237    .constdata          zimo_st9.o
    0x0801bff0   0x00000018   Data   RO          238    .constdata          zimo_st9.o
    0x0801c008   0x0000000c   Data   RO          239    .constdata          zimo_st9.o
    0x0801c014   0x0000000c   Data   RO          240    .constdata          zimo_st9.o
    0x0801c020   0x00000078   Data   RO          367    .constdata          main.o
    0x0801c098   0x00000072   Data   RO          946    .constdata          usart.o
    0x0801c10a   0x00000002   PAD
    0x0801c10c   0x000002fc   Data   RO         1028    .constdata          ts100_draw.o
    0x0801c408   0x00000088   Data   RO         3932    .constdata          m_ws.l(pow.o)
    0x0801c490   0x00000008   Data   RO         4254    .constdata          m_ws.l(qnan.o)
    0x0801c498   0x00000081   Data   RO         4302    .constdata          mc_w.l(ctype_o.o)
    0x0801c519   0x00000003   PAD
    0x0801c51c   0x00000004   Data   RO         4303    .constdata          mc_w.l(ctype_o.o)
    0x0801c520   0x00000070   Data   RO         1029    .conststring        ts100_draw.o
    0x0801c590   0x00000020   Data   RO         4335    Region$$Table       anon$$obj.o


    Execution Region RW_IRAM1 (Base: 0x20000000, Size: 0x00003048, Max: 0x0000c000, ABSOLUTE, COMPRESSED[0x000006b4])

    Base Addr    Size         Type   Attr      Idx    E Section Name        Object

    0x20000000   0x000000e0   Data   RW           13    .data               picturedata.o
    0x200000e0   0x000000e0   Data   RW           14    .data               picturedata.o
    0x200001c0   0x000000e0   Data   RW           15    .data               picturedata.o
    0x200002a0   0x000000e0   Data   RW           16    .data               picturedata.o
    0x20000380   0x000000e0   Data   RW           17    .data               picturedata.o
    0x20000460   0x000000e0   Data   RW           18    .data               picturedata.o
    0x20000540   0x000000e0   Data   RW           19    .data               picturedata.o
    0x20000620   0x000000e0   Data   RW           20    .data               picturedata.o
    0x20000700   0x000000e0   Data   RW           21    .data               picturedata.o
    0x200007e0   0x000000e0   Data   RW           22    .data               picturedata.o
    0x200008c0   0x000000e0   Data   RW           23    .data               picturedata.o
    0x200009a0   0x0000003a   Data   RW           24    .data               picturedata.o
    0x200009da   0x0000003a   Data   RW           25    .data               picturedata.o
    0x20000a14   0x0000003a   Data   RW           26    .data               picturedata.o
    0x20000a4e   0x0000003a   Data   RW           27    .data               picturedata.o
    0x20000a88   0x0000003a   Data   RW           28    .data               picturedata.o
    0x20000ac2   0x0000003a   Data   RW           29    .data               picturedata.o
    0x20000afc   0x0000003a   Data   RW           31    .data               picturedata.o
    0x20000b36   0x0000003a   Data   RW           33    .data               picturedata.o
    0x20000b70   0x0000003a   Data   RW           34    .data               picturedata.o
    0x20000baa   0x0000003a   Data   RW           35    .data               picturedata.o
    0x20000be4   0x0000003a   Data   RW           36    .data               picturedata.o
    0x20000c1e   0x0000003a   Data   RW           37    .data               picturedata.o
    0x20000c58   0x0000003a   Data   RW           38    .data               picturedata.o
    0x20000c92   0x0000003a   Data   RW           39    .data               picturedata.o
    0x20000ccc   0x0000003a   Data   RW           40    .data               picturedata.o
    0x20000d06   0x0000003a   Data   RW           41    .data               picturedata.o
    0x20000d40   0x00000010   Data   RW           73    .data               gl_ui.o
    0x20000d50   0x00000200   Data   RW          241    .data               zimo_st9.o
    0x20000f50   0x00000080   Data   RW          242    .data               zimo_st9.o
    0x20000fd0   0x00000010   Data   RW          288    .data               key.o
    0x20000fe0   0x000000e0   Data   RW          368    .data               main.o
    0x200010c0   0x00000001   Data   RW          369    .data               main.o
    0x200010c1   0x00000001   Data   RW          370    .data               main.o
    0x200010c2   0x00000002   Data   RW          371    .data               main.o
    0x200010c4   0x00000002   Data   RW          372    .data               main.o
    0x200010c6   0x00000002   Data   RW          373    .data               main.o
    0x200010c8   0x00000001   Data   RW          374    .data               main.o
    0x200010c9   0x00000001   PAD
    0x200010ca   0x00000002   Data   RW          375    .data               main.o
    0x200010cc   0x00000001   Data   RW          377    .data               main.o
    0x200010cd   0x00000001   Data   RW          378    .data               main.o
    0x200010ce   0x00000001   Data   RW          379    .data               main.o
    0x200010cf   0x00000001   Data   RW          380    .data               main.o
    0x200010d0   0x00000001   Data   RW          381    .data               main.o
    0x200010d1   0x00000001   PAD
    0x200010d2   0x00000006   Data   RW          382    .data               main.o
    0x200010d8   0x00000006   Data   RW          383    .data               main.o
    0x200010de   0x00000002   PAD
    0x200010e0   0x0000001c   Data   RW          896    .data               gl_key.o
    0x200010fc   0x00000004   Data   RW          947    .data               usart.o
    0x20001100   0x00000014   Data   RW         1175    .data               stm32f10x_rcc.o
    0x20001114   0x00000001   Data   RW         3554    .data               glcd.o
    0x20001115   0x00000001   PAD
    0x20001116   0x00000004   Data   RW         3805    .data               systick.o
    0x2000111a   0x00000010   Data   RW         3845    .data               touchpanel.o
    0x2000112a   0x00000002   PAD
    0x2000112c   0x00000004   Data   RW         4270    .data               mc_w.l(stdout.o)
    0x20001130   0x00000004   Data   RW         4284    .data               mc_w.l(errno.o)
    0x20001134   0x00000504   Zero   RW           72    .bss                gl_ui.o
    0x20001638   0x000011e6   Zero   RW          366    .bss                main.o
    0x2000281e   0x00000002   PAD
    0x20002820   0x000000a0   Zero   RW          894    .bss                gl_key.o
    0x200028c0   0x0000033c   Zero   RW          945    .bss                usart.o
    0x20002bfc   0x00000004   PAD
    0x20002c00   0x00000044   Zero   RW         3844    .bss                touchpanel.o
    0x20002c44   0x00000004   PAD
    0x20002c48   0x00000400   Zero   RW         3514    STACK               startup_stm32f10x_hd.o


==============================================================================

Image component sizes


      Code (inc. data)   RO Data    RW Data    ZI Data      Debug   Object Name

       244         14          0          0          0        652   base.o
         0          0          0          0          0         32   core_cm3.o
       108          0          0          0          0       8305   flash.o
        64          8          0         28        160       3120   gl_key.o
      1148        102          0         16       1284     248833   gl_ui.o
      1398         68          0          1          0      13563   glcd.o
       264         16          0         16          0       2862   key.o
      7570       1462        120        252       4582     292977   main.o
       164         28          0          0          0       2663   misc.o
         0          0      85892       3392          0       6596   picturedata.o
        36          8        304          0       1024        868   startup_stm32f10x_hd.o
       296         10          0          0          0       7573   stm32f10x_adc.o
       104         16          0          0          0       3028   stm32f10x_dac.o
       436         42          0          0          0       6603   stm32f10x_dma.o
        44         10          0          0          0       1196   stm32f10x_exti.o
       260         36          0          0          0       5973   stm32f10x_flash.o
       224          4          0          0          0       1945   stm32f10x_fsmc.o
       274          6          0          0          0       4410   stm32f10x_gpio.o
      1038        152          0          0          0      54946   stm32f10x_it.o
       228         36          0         20          0       5110   stm32f10x_rcc.o
         0          0          0          0          0       6976   stm32f10x_spi.o
        24          0          0          0          0        483   stm32f10x_systick.o
       220         42          0          0          0       4537   stm32f10x_tim.o
       238          4          0          0          0       4807   stm32f10x_usart.o
       228         26          0          0          0       1793   system_stm32f10x.o
        60          8          0          4          0        701   systick.o
       392         16          0         16         68       3890   touchpanel.o
      3546        340        876          0          0      16568   ts100_draw.o
        12          0          0          0          0        453   ui.o
       872         74        114          4        828       5200   usart.o
         0          0        792        640          0        890   zimo_st9.o

    ----------------------------------------------------------------------
     19520       2528      88132       4396       7956     717553   Object Totals
         0          0         32          0          0          0   (incl. Generated)
        28          0          2          7         10          0   (incl. Padding)

    ----------------------------------------------------------------------

      Code (inc. data)   RO Data    RW Data    ZI Data      Debug   Library Member Name

        16          6          0          0          0         68   dunder.o
        40          0          0          0          0         68   fpclassify.o
       170          0          0          0          0         96   poly.o
      2540        192        136          0          0        340   pow.o
         0          0          8          0          0          0   qnan.o
        76          0          0          0          0         84   sqrt.o
        92          0          0          0          0          0   __dczerorl2.o
        28          0          0          0          0         68   _chval.o
       158          0          0          0          0         92   _strtoul.o
        26          0          0          0          0         80   atoi.o
         8          4        133          0          0         68   ctype_o.o
         0          0          0          0          0          0   entry.o
         8          4          0          0          0          0   entry2.o
         4          0          0          0          0          0   entry5.o
         0          0          0          0          0          0   entry7b.o
         8          4          0          0          0          0   entry8.o
        20         10          0          4          0        136   errno.o
        30          0          0          0          0          0   handlers.o
        36          8          0          0          0         68   init.o
         0          0          0          0          0          0   iusefp.o
        30          0          0          0          0         68   llshl.o
        36          0          0          0          0         68   llsshr.o
        32          0          0          0          0         68   llushr.o
        36          0          0          0          0         68   memcpya.o
        38          0          0          0          0        108   memseta.o
      2308         94          0          0          0        596   printfa.o
         0          0          0          4          0          0   stdout.o
       112          0          0          0          0         88   strtol.o
        44          0          0          0          0         80   uidiv.o
        98          0          0          0          0         92   uldiv.o
        40          2          0          0          0         68   cdcmple.o
        40          2          0          0          0         68   cdrcmple.o
        56          0          0          0          0         88   d2f.o
       332          0          0          0          0        148   dadd.o
       222          0          0          0          0        100   ddiv.o
       190          0          0          0          0        176   depilogue.o
        62          0          0          0          0         80   dfixi.o
        46          0          0          0          0         68   dfixui.o
        48          0          0          0          0         68   dfixul.o
        34          0          0          0          0         76   dflti.o
        26          0          0          0          0         76   dfltui.o
       224          0          0          0          0         96   dmul.o
        46          0          0          0          0         80   dscalb.o
       162          0          0          0          0        100   dsqrt.o
        44          0          0          0          0         68   f2d.o
       176          0          0          0          0        140   fadd.o
       128          0          0          0          0         88   fdiv.o
       108          0          0          0          0        168   fepilogue.o
        50          0          0          0          0         68   ffixi.o
        40          0          0          0          0         68   ffixui.o
        18          0          0          0          0         68   fflti.o
        10          0          0          0          0         68   ffltui.o
       108          0          0          0          0         76   fmul.o

    ----------------------------------------------------------------------
      8212        326        280          8          0       4508   Library Totals
         8          0          3          0          0          0   (incl. Padding)

    ----------------------------------------------------------------------

      Code (inc. data)   RO Data    RW Data    ZI Data      Debug   Library Name

      2842        198        144          0          0        656   m_ws.l
      3152        124        133          8          0       1748   mc_w.l
      2210          4          0          0          0       2104   mf_w.l

    ----------------------------------------------------------------------
      8212        326        280          8          0       4508   Library Totals

    ----------------------------------------------------------------------

==============================================================================


      Code (inc. data)   RO Data    RW Data    ZI Data      Debug   

     27732       2854      88412       4404       7956     710413   Grand Totals
     27732       2854      88412       1716       7956     710413   ELF Image Totals (compressed)
     27732       2854      88412       1716          0          0   ROM Totals

==============================================================================

    Total RO  Size (Code + RO Data)               116144 ( 113.42kB)
    Total RW  Size (RW Data + ZI Data)             12360 (  12.07kB)
    Total ROM Size (Code + RO Data + RW Data)     117860 ( 115.10kB)

==============================================================================

